

Microchip MPLAB XC8 Assembler V2.20 build 20200408173844 
                                                                                               Fri Jul 30 21:18:53 2021

Microchip MPLAB XC8 C Compiler v2.20 (Free license) build 20200408173844 Og1 
     1                           	processor	18F4520
     2                           	fnconf	rparam,??,?,0
     3                           	pagewidth 120
     4                           	opt	flic
     5                           	psect	idataCOMRAM,global,class=CODE,delta=1,noexec
     6                           	psect	idataBANK0,global,class=CODE,delta=1,noexec
     7                           	psect	mediumconst,global,reloc=2,class=MEDIUMCONST,delta=1,noexec
     8                           	psect	cinit,global,reloc=2,class=CODE,delta=1
     9                           	psect	bssCOMRAM,global,class=COMRAM,space=1,delta=1,lowdata,noexec
    10                           	psect	dataCOMRAM,global,class=COMRAM,space=1,delta=1,lowdata,noexec
    11                           	psect	bssBANK0,global,class=BANK0,space=1,delta=1,lowdata,noexec
    12                           	psect	dataBANK0,global,class=BANK0,space=1,delta=1,lowdata,noexec
    13                           	psect	cstackCOMRAM,global,class=COMRAM,space=1,delta=1,lowdata,noexec
    14                           	psect	text0,global,reloc=2,class=CODE,delta=1
    15                           	psect	text1,global,reloc=2,class=CODE,delta=1
    16                           	psect	text2,global,reloc=2,class=CODE,delta=1
    17                           	psect	text3,global,reloc=2,class=CODE,delta=1
    18                           	psect	text4,global,reloc=2,class=CODE,delta=1
    19                           	psect	text5,global,reloc=2,class=CODE,delta=1
    20                           	psect	text6,global,reloc=2,class=CODE,delta=1
    21                           	psect	text7,global,reloc=2,class=CODE,delta=1
    22                           	psect	text8,global,reloc=2,class=CODE,delta=1
    23                           	psect	text9,global,reloc=2,class=CODE,delta=1,group=1
    24                           	psect	text10,global,reloc=2,class=CODE,delta=1
    25                           	psect	text11,global,reloc=2,class=CODE,delta=1
    26                           	psect	text12,global,reloc=2,class=CODE,delta=1
    27                           	psect	text13,global,reloc=2,class=CODE,delta=1
    28                           	psect	text14,global,reloc=2,class=CODE,delta=1
    29                           	psect	text15,global,reloc=2,class=CODE,delta=1,group=2
    30                           	psect	text16,global,reloc=2,class=CODE,delta=1
    31                           	psect	text17,global,reloc=2,class=CODE,delta=1
    32                           	psect	text18,global,reloc=2,class=CODE,delta=1
    33                           	psect	text19,global,reloc=2,class=CODE,delta=1
    34                           	psect	text20,global,reloc=2,class=CODE,delta=1
    35                           	psect	text21,global,reloc=2,class=CODE,delta=1
    36                           	psect	text22,global,reloc=2,class=CODE,delta=1,group=1
    37                           	psect	text23,global,reloc=2,class=CODE,delta=1
    38                           	psect	text24,global,reloc=2,class=CODE,delta=1
    39                           	psect	text25,global,reloc=2,class=CODE,delta=1,group=1
    40                           	psect	text26,global,reloc=2,class=CODE,delta=1,group=1
    41                           	psect	intsave_regs,global,class=BIGRAM,space=1,delta=1,noexec
    42                           	psect	rparam,global,class=COMRAM,space=1,delta=1,noexec
    43                           	psect	idloc,global,abs,ovrld,class=IDLOC,space=5,delta=1,noexec
    44                           	psect	config,global,abs,ovrld,class=CONFIG,space=4,delta=1,noexec
    45  0000                     
    46                           ; Version 2.20
    47                           ; Generated 12/02/2020 GMT
    48                           ; 
    49                           ; Copyright Â© 2020, Microchip Technology Inc. and its subsidiaries ("Microchip")
    50                           ; All rights reserved.
    51                           ; 
    52                           ; This software is developed by Microchip Technology Inc. and its subsidiaries ("Microch
      +                          ip").
    53                           ; 
    54                           ; Redistribution and use in source and binary forms, with or without modification, are
    55                           ; permitted provided that the following conditions are met:
    56                           ; 
    57                           ;     1. Redistributions of source code must retain the above copyright notice, this lis
      +                          t of
    58                           ;        conditions and the following disclaimer.
    59                           ; 
    60                           ;     2. Redistributions in binary form must reproduce the above copyright notice, this 
      +                          list
    61                           ;        of conditions and the following disclaimer in the documentation and/or other
    62                           ;        materials provided with the distribution.
    63                           ; 
    64                           ;     3. Microchip's name may not be used to endorse or promote products derived from th
      +                          is
    65                           ;        software without specific prior written permission.
    66                           ; 
    67                           ; THIS SOFTWARE IS PROVIDED BY MICROCHIP "AS IS" AND ANY EXPRESS OR IMPLIED WARRANTIES,
    68                           ; INCLUDING, BUT NOT LIMITED TO, THE IMPLIED WARRANTIES OF MERCHANTABILITY AND FITNESS F
      +                          OR
    69                           ; PURPOSE ARE DISCLAIMED.  IN NO EVENT SHALL MICROCHIP BE LIABLE FOR ANY DIRECT, INDIREC
      +                          T,
    70                           ; INCIDENTAL, SPECIAL, EXEMPLARY, OR CONSEQUENTIAL DAMAGES (INCLUDING BUT NOT LIMITED TO
    71                           ; PROCUREMENT OF SUBSTITUTE GOODS OR SERVICES; LOSS OF USE, DATA OR PROFITS; OR BUSINESS
    72                           ; INTERRUPTION) HOWSOEVER CAUSED AND ON ANY THEORY OF LIABILITY, WHETHER IN CONTRACT, ST
      +                          RICT
    73                           ; LIABILITY, OR TORT (INCLUDING NEGLIGENCE OR OTHERWISE) ARISING IN ANY WAY OUT OF THE U
      +                          SE OF
    74                           ; THIS SOFTWARE, EVEN IF ADVISED OF THE POSSIBILITY OF SUCH DAMAGE.
    75                           ; 
    76                           ; 
    77                           ; Code-generator required, PIC18F4520 Definitions
    78                           ; 
    79                           ; SFR Addresses
    80  0000                     
    81                           	psect	idataCOMRAM
    82  006012                     __pidataCOMRAM:
    83                           	callstack 0
    84                           
    85                           ;initializer for _atrasoMin
    86  006012  0014               	dw	20
    87                           
    88                           ;initializer for _delay
    89  006014  00FA               	dw	250
    90                           
    91                           ;initializer for _atrasoMax
    92  006016  03E8               	dw	1000
    93                           
    94                           	psect	idataBANK0
    95  0064A6                     __pidataBANK0:
    96                           	callstack 0
    97                           
    98                           ;initializer for _vetImpLeds
    99  0064A6  0002               	dw	2
   100  0064A8  0006               	dw	6
   101  0064AA  0005               	dw	5
   102  0064AC  0005               	dw	5
   103  0064AE  0004               	dw	4
   104  0064B0  0005               	dw	5
   105  0064B2  0007               	dw	7
   106  0064B4  0006               	dw	6
   107  0064B6  0007               	dw	7
   108  0064B8  0003               	dw	3
   109  0064BA  0003               	dw	3
   110  0064BC  0006               	dw	6
   111  0064BE  0007               	dw	7
   112  0064C0  0003               	dw	3
   113  0064C2  0007               	dw	7
   114  0064C4  0002               	dw	2
   115  0064C6  0006               	dw	6
   116  0064C8  0007               	dw	7
   117  0064CA  0003               	dw	3
   118  0064CC  0006               	dw	6
   119  0064CE  0002               	dw	2
   120  0064D0  0002               	dw	2
   121  0064D2  0006               	dw	6
   122  0064D4  0001               	dw	1
   123  0064D6  0007               	dw	7
   124  0064D8  0007               	dw	7
   125                           
   126                           ;initializer for _vetAnos
   127  0064DA  0782               	dw	1922
   128  0064DC  0789               	dw	1929
   129  0064DE  078A               	dw	1930
   130  0064E0  078C               	dw	1932
   131  0064E2  078E               	dw	1934
   132  0064E4  0791               	dw	1937
   133  0064E6  0793               	dw	1939
   134  0064E8  0794               	dw	1940
   135  0064EA  0799               	dw	1945
   136  0064EC  07A1               	dw	1953
   137  0064EE  07A2               	dw	1954
   138  0064F0  07A8               	dw	1960
   139  0064F2  07AC               	dw	1964
   140  0064F4  07AF               	dw	1967
   141  0064F6  07B0               	dw	1968
   142  0064F8  07B4               	dw	1972
   143  0064FA  07BA               	dw	1978
   144  0064FC  07C1               	dw	1985
   145  0064FE  07C5               	dw	1989
   146  006500  07C6               	dw	1990
   147  006502  07D2               	dw	2002
   148  006504  07DA               	dw	2010
   149  006506  07E0               	dw	2016
   150  006508  07E2               	dw	2018
   151  00650A  07E4               	dw	2020
   152  00650C  07E5               	dw	2021
   153                           
   154                           ;initializer for _vetLed
   155  00650E  0080               	dw	128
   156  006510  00C0               	dw	192
   157  006512  00E0               	dw	224
   158  006514  00F0               	dw	240
   159  006516  00F8               	dw	248
   160  006518  00FC               	dw	252
   161  00651A  00FE               	dw	254
   162                           
   163                           ;initializer for _atraso
   164  00651C  000F               	dw	15
   165                           
   166                           ;initializer for _atraso_min
   167  00651E  0005               	dw	5
   168                           
   169                           ;initializer for _atrasoMed
   170  006520  0096               	dw	150
   171                           
   172                           	psect	mediumconst
   173  00795C                     __pmediumconst:
   174                           	callstack 0
   175  00795C  00                 	db	0
   176  00795D                     _valor@ssd$F300:
   177                           	callstack 0
   178  00795D  3F                 	db	63
   179  00795E  06                 	db	6
   180  00795F  5B                 	db	91
   181  007960  4F                 	db	79
   182  007961  66                 	db	102
   183  007962  6D                 	db	109
   184  007963  7D                 	db	125
   185  007964  07                 	db	7
   186  007965  7F                 	db	127
   187  007966  6F                 	db	111
   188  007967  77                 	db	119
   189  007968  7C                 	db	124
   190  007969  39                 	db	57
   191  00796A  5E                 	db	94
   192  00796B  79                 	db	121
   193  00796C  71                 	db	113
   194  00796D                     __end_of_valor@ssd$F300:
   195                           	callstack 0
   196  00796D                     _linha:
   197                           	callstack 0
   198  00796D  01                 	db	1
   199  00796E  02                 	db	2
   200  00796F  04                 	db	4
   201  007970  00                 	db	0
   202  007971                     __end_of_linha:
   203                           	callstack 0
   204  0000                     _TRISE	set	3990
   205  0000                     _TRISD	set	3989
   206  0000                     _TRISC	set	3988
   207  0000                     _TRISB	set	3987
   208  0000                     _TRISA	set	3986
   209  0000                     _PORTE	set	3972
   210  0000                     _PORTD	set	3971
   211  0000                     _PORTC	set	3970
   212  0000                     _PORTB	set	3969
   213  0000                     _PORTA	set	3968
   214  007971                     STR_1:
   215  007971  20                 	db	32
   216  007972  20                 	db	32
   217  007973  20                 	db	32
   218  007974  20                 	db	32
   219  007975  20                 	db	32
   220  007976  20                 	db	32
   221  007977  20                 	db	32
   222  007978  20                 	db	32
   223  007979  20                 	db	32
   224  00797A  20                 	db	32
   225  00797B  20                 	db	32
   226  00797C  20                 	db	32
   227  00797D  20                 	db	32
   228  00797E  20                 	db	32
   229  00797F  20                 	db	32
   230  007980  20                 	db	32
   231  007981  20                 	db	32
   232  007982  20                 	db	32
   233  007983  20                 	db	32
   234  007984  20                 	db	32
   235  007985  20                 	db	32
   236  007986  20                 	db	32
   237  007987  20                 	db	32
   238  007988  20                 	db	32
   239  007989  20                 	db	32
   240  00798A  20                 	db	32
   241  00798B  20                 	db	32
   242  00798C  20                 	db	32
   243  00798D  20                 	db	32
   244  00798E  20                 	db	32
   245  00798F  20                 	db	32
   246  007990  20                 	db	32
   247  007991  20                 	db	32
   248  007992  20                 	db	32
   249  007993  20                 	db	32
   250  007994  20                 	db	32
   251  007995  20                 	db	32
   252  007996  20                 	db	32
   253  007997  20                 	db	32
   254  007998  20                 	db	32
   255  007999  20                 	db	32
   256  00799A  20                 	db	32
   257  00799B  20                 	db	32
   258  00799C  20                 	db	32
   259  00799D  20                 	db	32
   260  00799E  20                 	db	32
   261  00799F  20                 	db	32
   262  0079A0  20                 	db	32
   263  0079A1  20                 	db	32
   264  0079A2  20                 	db	32
   265  0079A3  20                 	db	32
   266  0079A4  20                 	db	32
   267  0079A5  20                 	db	32
   268  0079A6  20                 	db	32
   269  0079A7  20                 	db	32
   270  0079A8  20                 	db	32
   271  0079A9  20                 	db	32
   272  0079AA  20                 	db	32
   273  0079AB  20                 	db	32
   274  0079AC  20                 	db	32
   275  0079AD  20                 	db	32
   276  0079AE  20                 	db	32
   277  0079AF  20                 	db	32
   278  0079B0  20                 	db	32
   279  0079B1  20                 	db	32
   280  0079B2  20                 	db	32
   281  0079B3  20                 	db	32
   282  0079B4  20                 	db	32
   283  0079B5  20                 	db	32
   284  0079B6  20                 	db	32
   285  0079B7  20                 	db	32
   286  0079B8  20                 	db	32
   287  0079B9  20                 	db	32
   288  0079BA  20                 	db	32
   289  0079BB  20                 	db	32
   290  0079BC  20                 	db	32
   291  0079BD  20                 	db	32
   292  0079BE  20                 	db	32
   293  0079BF  20                 	db	32
   294  0079C0  20                 	db	32
   295  0079C1  20                 	db	32
   296  0079C2  20                 	db	32
   297  0079C3  20                 	db	32
   298  0079C4  20                 	db	32
   299  0079C5  20                 	db	32
   300  0079C6  20                 	db	32
   301  0079C7  20                 	db	32
   302  0079C8  20                 	db	32
   303  0079C9  20                 	db	32
   304  0079CA  20                 	db	32
   305  0079CB  20                 	db	32
   306  0079CC  20                 	db	32
   307  0079CD  20                 	db	32
   308  0079CE  20                 	db	32
   309  0079CF  20                 	db	32
   310  0079D0  20                 	db	32
   311  0079D1  20                 	db	32
   312  0079D2  20                 	db	32
   313  0079D3  00                 	db	0
   314  0079D4                     STR_33:
   315  0079D4  43                 	db	67	;'C'
   316  0079D5  61                 	db	97	;'a'
   317  0079D6  73                 	db	115	;'s'
   318  0079D7  6F                 	db	111	;'o'
   319  0079D8  73                 	db	115	;'s'
   320  0079D9  20                 	db	32
   321  0079DA  64                 	db	100	;'d'
   322  0079DB  65                 	db	101	;'e'
   323  0079DC  20                 	db	32
   324  0079DD  63                 	db	99	;'c'
   325  0079DE  6F                 	db	111	;'o'
   326  0079DF  72                 	db	114	;'r'
   327  0079E0  6F                 	db	111	;'o'
   328  0079E1  6E                 	db	110	;'n'
   329  0079E2  61                 	db	97	;'a'
   330  0079E3  20                 	db	32
   331  0079E4  76                 	db	118	;'v'
   332  0079E5  69                 	db	105	;'i'
   333  0079E6  72                 	db	114	;'r'
   334  0079E7  75                 	db	117	;'u'
   335  0079E8  73                 	db	115	;'s'
   336  0079E9  20                 	db	32
   337  0079EA  6E                 	db	110	;'n'
   338  0079EB  6F                 	db	111	;'o'
   339  0079EC  20                 	db	32
   340  0079ED  42                 	db	66	;'B'
   341  0079EE  72                 	db	114	;'r'
   342  0079EF  61                 	db	97	;'a'
   343  0079F0  73                 	db	115	;'s'
   344  0079F1  69                 	db	105	;'i'
   345  0079F2  6C                 	db	108	;'l'
   346  0079F3  20                 	db	32
   347  0079F4  63                 	db	99	;'c'
   348  0079F5  6F                 	db	111	;'o'
   349  0079F6  6D                 	db	109	;'m'
   350  0079F7  20                 	db	32
   351  0079F8  6D                 	db	109	;'m'
   352  0079F9  61                 	db	97	;'a'
   353  0079FA  69                 	db	105	;'i'
   354  0079FB  73                 	db	115	;'s'
   355  0079FC  20                 	db	32
   356  0079FD  64                 	db	100	;'d'
   357  0079FE  65                 	db	101	;'e'
   358  0079FF  20                 	db	32
   359  007A00  20                 	db	32
   360  007A01  20                 	db	32
   361  007A02  20                 	db	32
   362  007A03  20                 	db	32
   363  007A04  35                 	db	53	;'5'
   364  007A05  30                 	db	48	;'0'
   365  007A06  30                 	db	48	;'0'
   366  007A07  30                 	db	48	;'0'
   367  007A08  30                 	db	48	;'0'
   368  007A09  30                 	db	48	;'0'
   369  007A0A  20                 	db	32
   370  007A0B  6D                 	db	109	;'m'
   371  007A0C  6F                 	db	111	;'o'
   372  007A0D  72                 	db	114	;'r'
   373  007A0E  74                 	db	116	;'t'
   374  007A0F  65                 	db	101	;'e'
   375  007A10  73                 	db	115	;'s'
   376  007A11  00                 	db	0
   377  007A12                     STR_45:
   378  007A12  56                 	db	86	;'V'
   379  007A13  65                 	db	101	;'e'
   380  007A14  72                 	db	114	;'r'
   381  007A15  69                 	db	105	;'i'
   382  007A16  66                 	db	102	;'f'
   383  007A17  69                 	db	105	;'i'
   384  007A18  71                 	db	113	;'q'
   385  007A19  75                 	db	117	;'u'
   386  007A1A  65                 	db	101	;'e'
   387  007A1B  20                 	db	32
   388  007A1C  61                 	db	97	;'a'
   389  007A1D  20                 	db	32
   390  007A1E  20                 	db	32
   391  007A1F  20                 	db	32
   392  007A20  20                 	db	32
   393  007A21  20                 	db	32
   394  007A22  69                 	db	105	;'i'
   395  007A23  6D                 	db	109	;'m'
   396  007A24  70                 	db	112	;'p'
   397  007A25  6F                 	db	111	;'o'
   398  007A26  72                 	db	114	;'r'
   399  007A27  74                 	db	116	;'t'
   400  007A28  61                 	db	97	;'a'
   401  007A29  6E                 	db	110	;'n'
   402  007A2A  63                 	db	99	;'c'
   403  007A2B  69                 	db	105	;'i'
   404  007A2C  61                 	db	97	;'a'
   405  007A2D  20                 	db	32
   406  007A2E  64                 	db	100	;'d'
   407  007A2F  6F                 	db	111	;'o'
   408  007A30  20                 	db	32
   409  007A31  20                 	db	32
   410  007A32  61                 	db	97	;'a'
   411  007A33  6E                 	db	110	;'n'
   412  007A34  6F                 	db	111	;'o'
   413  007A35  20                 	db	32
   414  007A36  6E                 	db	110	;'n'
   415  007A37  6F                 	db	111	;'o'
   416  007A38  73                 	db	115	;'s'
   417  007A39  20                 	db	32
   418  007A3A  4C                 	db	76	;'L'
   419  007A3B  45                 	db	69	;'E'
   420  007A3C  44                 	db	68	;'D'
   421  007A3D  73                 	db	115	;'s'
   422  007A3E  20                 	db	32
   423  007A3F  20                 	db	32
   424  007A40  20                 	db	32
   425  007A41  20                 	db	32
   426  007A42  20                 	db	32
   427  007A43  20                 	db	32
   428  007A44  20                 	db	32
   429  007A45  20                 	db	32
   430  007A46  20                 	db	32
   431  007A47  20                 	db	32
   432  007A48  20                 	db	32
   433  007A49  20                 	db	32
   434  007A4A  20                 	db	32
   435  007A4B  20                 	db	32
   436  007A4C  20                 	db	32
   437  007A4D  20                 	db	32
   438  007A4E  00                 	db	0
   439  007A4F                     STR_37:
   440  007A4F  43                 	db	67	;'C'
   441  007A50  68                 	db	104	;'h'
   442  007A51  61                 	db	97	;'a'
   443  007A52  63                 	db	99	;'c'
   444  007A53  69                 	db	105	;'i'
   445  007A54  6E                 	db	110	;'n'
   446  007A55  61                 	db	97	;'a'
   447  007A56  20                 	db	32
   448  007A57  65                 	db	101	;'e'
   449  007A58  6D                 	db	109	;'m'
   450  007A59  20                 	db	32
   451  007A5A  20                 	db	32
   452  007A5B  20                 	db	32
   453  007A5C  20                 	db	32
   454  007A5D  20                 	db	32
   455  007A5E  20                 	db	32
   456  007A5F  66                 	db	102	;'f'
   457  007A60  61                 	db	97	;'a'
   458  007A61  76                 	db	118	;'v'
   459  007A62  65                 	db	101	;'e'
   460  007A63  6C                 	db	108	;'l'
   461  007A64  61                 	db	97	;'a'
   462  007A65  20                 	db	32
   463  007A66  6E                 	db	110	;'n'
   464  007A67  6F                 	db	111	;'o'
   465  007A68  20                 	db	32
   466  007A69  52                 	db	82	;'R'
   467  007A6A  4A                 	db	74	;'J'
   468  007A6B  20                 	db	32
   469  007A6C  20                 	db	32
   470  007A6D  20                 	db	32
   471  007A6E  20                 	db	32
   472  007A6F  20                 	db	32
   473  007A70  20                 	db	32
   474  007A71  20                 	db	32
   475  007A72  20                 	db	32
   476  007A73  20                 	db	32
   477  007A74  20                 	db	32
   478  007A75  20                 	db	32
   479  007A76  20                 	db	32
   480  007A77  20                 	db	32
   481  007A78  20                 	db	32
   482  007A79  20                 	db	32
   483  007A7A  20                 	db	32
   484  007A7B  20                 	db	32
   485  007A7C  20                 	db	32
   486  007A7D  20                 	db	32
   487  007A7E  20                 	db	32
   488  007A7F  20                 	db	32
   489  007A80  20                 	db	32
   490  007A81  20                 	db	32
   491  007A82  20                 	db	32
   492  007A83  20                 	db	32
   493  007A84  20                 	db	32
   494  007A85  20                 	db	32
   495  007A86  20                 	db	32
   496  007A87  20                 	db	32
   497  007A88  20                 	db	32
   498  007A89  20                 	db	32
   499  007A8A  00                 	db	0
   500  007A8B                     STR_36:
   501  007A8B  69                 	db	105	;'i'
   502  007A8C  6E                 	db	110	;'n'
   503  007A8D  69                 	db	105	;'i'
   504  007A8E  63                 	db	99	;'c'
   505  007A8F  69                 	db	105	;'i'
   506  007A90  6F                 	db	111	;'o'
   507  007A91  20                 	db	32
   508  007A92  64                 	db	100	;'d'
   509  007A93  61                 	db	97	;'a'
   510  007A94  20                 	db	32
   511  007A95  20                 	db	32
   512  007A96  20                 	db	32
   513  007A97  20                 	db	32
   514  007A98  20                 	db	32
   515  007A99  20                 	db	32
   516  007A9A  20                 	db	32
   517  007A9B  76                 	db	118	;'v'
   518  007A9C  61                 	db	97	;'a'
   519  007A9D  63                 	db	99	;'c'
   520  007A9E  69                 	db	105	;'i'
   521  007A9F  6E                 	db	110	;'n'
   522  007AA0  61                 	db	97	;'a'
   523  007AA1  63                 	db	99	;'c'
   524  007AA2  61                 	db	97	;'a'
   525  007AA3  6F                 	db	111	;'o'
   526  007AA4  20                 	db	32
   527  007AA5  6E                 	db	110	;'n'
   528  007AA6  6F                 	db	111	;'o'
   529  007AA7  20                 	db	32
   530  007AA8  20                 	db	32
   531  007AA9  20                 	db	32
   532  007AAA  20                 	db	32
   533  007AAB  42                 	db	66	;'B'
   534  007AAC  72                 	db	114	;'r'
   535  007AAD  61                 	db	97	;'a'
   536  007AAE  73                 	db	115	;'s'
   537  007AAF  69                 	db	105	;'i'
   538  007AB0  6C                 	db	108	;'l'
   539  007AB1  20                 	db	32
   540  007AB2  20                 	db	32
   541  007AB3  20                 	db	32
   542  007AB4  20                 	db	32
   543  007AB5  20                 	db	32
   544  007AB6  20                 	db	32
   545  007AB7  20                 	db	32
   546  007AB8  20                 	db	32
   547  007AB9  20                 	db	32
   548  007ABA  20                 	db	32
   549  007ABB  20                 	db	32
   550  007ABC  20                 	db	32
   551  007ABD  20                 	db	32
   552  007ABE  20                 	db	32
   553  007ABF  20                 	db	32
   554  007AC0  20                 	db	32
   555  007AC1  20                 	db	32
   556  007AC2  20                 	db	32
   557  007AC3  20                 	db	32
   558  007AC4  20                 	db	32
   559  007AC5  20                 	db	32
   560  007AC6  00                 	db	0
   561  007AC7                     STR_35:
   562  007AC7  43                 	db	67	;'C'
   563  007AC8  72                 	db	114	;'r'
   564  007AC9  69                 	db	105	;'i'
   565  007ACA  73                 	db	115	;'s'
   566  007ACB  65                 	db	101	;'e'
   567  007ACC  20                 	db	32
   568  007ACD  73                 	db	115	;'s'
   569  007ACE  61                 	db	97	;'a'
   570  007ACF  6E                 	db	110	;'n'
   571  007AD0  69                 	db	105	;'i'
   572  007AD1  74                 	db	116	;'t'
   573  007AD2  61                 	db	97	;'a'
   574  007AD3  72                 	db	114	;'r'
   575  007AD4  69                 	db	105	;'i'
   576  007AD5  61                 	db	97	;'a'
   577  007AD6  20                 	db	32
   578  007AD7  65                 	db	101	;'e'
   579  007AD8  20                 	db	32
   580  007AD9  67                 	db	103	;'g'
   581  007ADA  6F                 	db	111	;'o'
   582  007ADB  76                 	db	118	;'v'
   583  007ADC  65                 	db	101	;'e'
   584  007ADD  72                 	db	114	;'r'
   585  007ADE  6E                 	db	110	;'n'
   586  007ADF  61                 	db	97	;'a'
   587  007AE0  6D                 	db	109	;'m'
   588  007AE1  65                 	db	101	;'e'
   589  007AE2  6E                 	db	110	;'n'
   590  007AE3  74                 	db	116	;'t'
   591  007AE4  61                 	db	97	;'a'
   592  007AE5  6C                 	db	108	;'l'
   593  007AE6  20                 	db	32
   594  007AE7  20                 	db	32
   595  007AE8  20                 	db	32
   596  007AE9  20                 	db	32
   597  007AEA  20                 	db	32
   598  007AEB  20                 	db	32
   599  007AEC  20                 	db	32
   600  007AED  20                 	db	32
   601  007AEE  20                 	db	32
   602  007AEF  20                 	db	32
   603  007AF0  20                 	db	32
   604  007AF1  20                 	db	32
   605  007AF2  20                 	db	32
   606  007AF3  20                 	db	32
   607  007AF4  20                 	db	32
   608  007AF5  20                 	db	32
   609  007AF6  20                 	db	32
   610  007AF7  20                 	db	32
   611  007AF8  20                 	db	32
   612  007AF9  20                 	db	32
   613  007AFA  20                 	db	32
   614  007AFB  20                 	db	32
   615  007AFC  20                 	db	32
   616  007AFD  20                 	db	32
   617  007AFE  20                 	db	32
   618  007AFF  20                 	db	32
   619  007B00  20                 	db	32
   620  007B01  00                 	db	0
   621  007B02                     STR_38:
   622  007B02  53                 	db	83	;'S'
   623  007B03  65                 	db	101	;'e'
   624  007B04  72                 	db	114	;'r'
   625  007B05  69                 	db	105	;'i'
   626  007B06  61                 	db	97	;'a'
   627  007B07  6C                 	db	108	;'l'
   628  007B08  20                 	db	32
   629  007B09  6B                 	db	107	;'k'
   630  007B0A  69                 	db	105	;'i'
   631  007B0B  6C                 	db	108	;'l'
   632  007B0C  6C                 	db	108	;'l'
   633  007B0D  65                 	db	101	;'e'
   634  007B0E  72                 	db	114	;'r'
   635  007B0F  20                 	db	32
   636  007B10  20                 	db	32
   637  007B11  20                 	db	32
   638  007B12  70                 	db	112	;'p'
   639  007B13  72                 	db	114	;'r'
   640  007B14  6F                 	db	111	;'o'
   641  007B15  63                 	db	99	;'c'
   642  007B16  75                 	db	117	;'u'
   643  007B17  72                 	db	114	;'r'
   644  007B18  61                 	db	97	;'a'
   645  007B19  64                 	db	100	;'d'
   646  007B1A  6F                 	db	111	;'o'
   647  007B1B  20                 	db	32
   648  007B1C  20                 	db	32
   649  007B1D  20                 	db	32
   650  007B1E  20                 	db	32
   651  007B1F  20                 	db	32
   652  007B20  20                 	db	32
   653  007B21  20                 	db	32
   654  007B22  64                 	db	100	;'d'
   655  007B23  75                 	db	117	;'u'
   656  007B24  72                 	db	114	;'r'
   657  007B25  61                 	db	97	;'a'
   658  007B26  6E                 	db	110	;'n'
   659  007B27  74                 	db	116	;'t'
   660  007B28  65                 	db	101	;'e'
   661  007B29  20                 	db	32
   662  007B2A  32                 	db	50	;'2'
   663  007B2B  30                 	db	48	;'0'
   664  007B2C  20                 	db	32
   665  007B2D  64                 	db	100	;'d'
   666  007B2E  69                 	db	105	;'i'
   667  007B2F  61                 	db	97	;'a'
   668  007B30  73                 	db	115	;'s'
   669  007B31  20                 	db	32
   670  007B32  66                 	db	102	;'f'
   671  007B33  6F                 	db	111	;'o'
   672  007B34  69                 	db	105	;'i'
   673  007B35  20                 	db	32
   674  007B36  6D                 	db	109	;'m'
   675  007B37  6F                 	db	111	;'o'
   676  007B38  72                 	db	114	;'r'
   677  007B39  74                 	db	116	;'t'
   678  007B3A  6F                 	db	111	;'o'
   679  007B3B  20                 	db	32
   680  007B3C  00                 	db	0
   681  007B3D                     STR_34:
   682  007B3D  4C                 	db	76	;'L'
   683  007B3E  61                 	db	97	;'a'
   684  007B3F  6E                 	db	110	;'n'
   685  007B40  63                 	db	99	;'c'
   686  007B41  61                 	db	97	;'a'
   687  007B42  6D                 	db	109	;'m'
   688  007B43  65                 	db	101	;'e'
   689  007B44  6E                 	db	110	;'n'
   690  007B45  74                 	db	116	;'t'
   691  007B46  6F                 	db	111	;'o'
   692  007B47  20                 	db	32
   693  007B48  64                 	db	100	;'d'
   694  007B49  6F                 	db	111	;'o'
   695  007B4A  20                 	db	32
   696  007B4B  20                 	db	32
   697  007B4C  20                 	db	32
   698  007B4D  70                 	db	112	;'p'
   699  007B4E  72                 	db	114	;'r'
   700  007B4F  69                 	db	105	;'i'
   701  007B50  6D                 	db	109	;'m'
   702  007B51  65                 	db	101	;'e'
   703  007B52  69                 	db	105	;'i'
   704  007B53  72                 	db	114	;'r'
   705  007B54  6F                 	db	111	;'o'
   706  007B55  20                 	db	32
   707  007B56  73                 	db	115	;'s'
   708  007B57  61                 	db	97	;'a'
   709  007B58  74                 	db	116	;'t'
   710  007B59  65                 	db	101	;'e'
   711  007B5A  6C                 	db	108	;'l'
   712  007B5B  69                 	db	105	;'i'
   713  007B5C  74                 	db	116	;'t'
   714  007B5D  65                 	db	101	;'e'
   715  007B5E  20                 	db	32
   716  007B5F  74                 	db	116	;'t'
   717  007B60  6F                 	db	111	;'o'
   718  007B61  74                 	db	116	;'t'
   719  007B62  61                 	db	97	;'a'
   720  007B63  6C                 	db	108	;'l'
   721  007B64  6D                 	db	109	;'m'
   722  007B65  65                 	db	101	;'e'
   723  007B66  6E                 	db	110	;'n'
   724  007B67  74                 	db	116	;'t'
   725  007B68  65                 	db	101	;'e'
   726  007B69  20                 	db	32
   727  007B6A  20                 	db	32
   728  007B6B  20                 	db	32
   729  007B6C  20                 	db	32
   730  007B6D  62                 	db	98	;'b'
   731  007B6E  72                 	db	114	;'r'
   732  007B6F  61                 	db	97	;'a'
   733  007B70  73                 	db	115	;'s'
   734  007B71  69                 	db	105	;'i'
   735  007B72  6C                 	db	108	;'l'
   736  007B73  65                 	db	101	;'e'
   737  007B74  69                 	db	105	;'i'
   738  007B75  72                 	db	114	;'r'
   739  007B76  6F                 	db	111	;'o'
   740  007B77  00                 	db	0
   741  007B78                     STR_41:
   742  007B78  45                 	db	69	;'E'
   743  007B79  73                 	db	115	;'s'
   744  007B7A  74                 	db	116	;'t'
   745  007B7B  61                 	db	97	;'a'
   746  007B7C  20                 	db	32
   747  007B7D  65                 	db	101	;'e'
   748  007B7E  20                 	db	32
   749  007B7F  61                 	db	97	;'a'
   750  007B80  20                 	db	32
   751  007B81  6C                 	db	108	;'l'
   752  007B82  69                 	db	105	;'i'
   753  007B83  6E                 	db	110	;'n'
   754  007B84  68                 	db	104	;'h'
   755  007B85  61                 	db	97	;'a'
   756  007B86  20                 	db	32
   757  007B87  20                 	db	32
   758  007B88  64                 	db	100	;'d'
   759  007B89  6F                 	db	111	;'o'
   760  007B8A  20                 	db	32
   761  007B8B  74                 	db	116	;'t'
   762  007B8C  65                 	db	101	;'e'
   763  007B8D  6D                 	db	109	;'m'
   764  007B8E  70                 	db	112	;'p'
   765  007B8F  6F                 	db	111	;'o'
   766  007B90  20                 	db	32
   767  007B91  64                 	db	100	;'d'
   768  007B92  6F                 	db	111	;'o'
   769  007B93  73                 	db	115	;'s'
   770  007B94  20                 	db	32
   771  007B95  20                 	db	32
   772  007B96  20                 	db	32
   773  007B97  20                 	db	32
   774  007B98  75                 	db	117	;'u'
   775  007B99  6C                 	db	108	;'l'
   776  007B9A  74                 	db	116	;'t'
   777  007B9B  69                 	db	105	;'i'
   778  007B9C  6D                 	db	109	;'m'
   779  007B9D  6F                 	db	111	;'o'
   780  007B9E  73                 	db	115	;'s'
   781  007B9F  20                 	db	32
   782  007BA0  31                 	db	49	;'1'
   783  007BA1  30                 	db	48	;'0'
   784  007BA2  30                 	db	48	;'0'
   785  007BA3  20                 	db	32
   786  007BA4  61                 	db	97	;'a'
   787  007BA5  6E                 	db	110	;'n'
   788  007BA6  6F                 	db	111	;'o'
   789  007BA7  73                 	db	115	;'s'
   790  007BA8  64                 	db	100	;'d'
   791  007BA9  6F                 	db	111	;'o'
   792  007BAA  20                 	db	32
   793  007BAB  42                 	db	66	;'B'
   794  007BAC  72                 	db	114	;'r'
   795  007BAD  61                 	db	97	;'a'
   796  007BAE  73                 	db	115	;'s'
   797  007BAF  69                 	db	105	;'i'
   798  007BB0  6C                 	db	108	;'l'
   799  007BB1  00                 	db	0
   800  007BB2                     STR_21:
   801  007BB2  4D                 	db	77	;'M'
   802  007BB3  69                 	db	105	;'i'
   803  007BB4  6C                 	db	108	;'l'
   804  007BB5  61                 	db	97	;'a'
   805  007BB6  67                 	db	103	;'g'
   806  007BB7  72                 	db	114	;'r'
   807  007BB8  65                 	db	101	;'e'
   808  007BB9  20                 	db	32
   809  007BBA  65                 	db	101	;'e'
   810  007BBB  6E                 	db	110	;'n'
   811  007BBC  63                 	db	99	;'c'
   812  007BBD  6F                 	db	111	;'o'
   813  007BBE  6E                 	db	110	;'n'
   814  007BBF  6F                 	db	111	;'o'
   815  007BC0  6D                 	db	109	;'m'
   816  007BC1  69                 	db	105	;'i'
   817  007BC2  63                 	db	99	;'c'
   818  007BC3  6F                 	db	111	;'o'
   819  007BC4  2C                 	db	44
   820  007BC5  20                 	db	32
   821  007BC6  63                 	db	99	;'c'
   822  007BC7  72                 	db	114	;'r'
   823  007BC8  65                 	db	101	;'e'
   824  007BC9  73                 	db	115	;'s'
   825  007BCA  63                 	db	99	;'c'
   826  007BCB  69                 	db	105	;'i'
   827  007BCC  6D                 	db	109	;'m'
   828  007BCD  65                 	db	101	;'e'
   829  007BCE  6E                 	db	110	;'n'
   830  007BCF  74                 	db	116	;'t'
   831  007BD0  6F                 	db	111	;'o'
   832  007BD1  20                 	db	32
   833  007BD2  65                 	db	101	;'e'
   834  007BD3  6D                 	db	109	;'m'
   835  007BD4  20                 	db	32
   836  007BD5  31                 	db	49	;'1'
   837  007BD6  31                 	db	49	;'1'
   838  007BD7  2C                 	db	44
   839  007BD8  32                 	db	50	;'2'
   840  007BD9  20                 	db	32
   841  007BDA  70                 	db	112	;'p'
   842  007BDB  6F                 	db	111	;'o'
   843  007BDC  72                 	db	114	;'r'
   844  007BDD  20                 	db	32
   845  007BDE  63                 	db	99	;'c'
   846  007BDF  65                 	db	101	;'e'
   847  007BE0  6E                 	db	110	;'n'
   848  007BE1  74                 	db	116	;'t'
   849  007BE2  6F                 	db	111	;'o'
   850  007BE3  00                 	db	0
   851  007BE4                     STR_32:
   852  007BE4  49                 	db	73	;'I'
   853  007BE5  6E                 	db	110	;'n'
   854  007BE6  73                 	db	115	;'s'
   855  007BE7  74                 	db	116	;'t'
   856  007BE8  61                 	db	97	;'a'
   857  007BE9  62                 	db	98	;'b'
   858  007BEA  69                 	db	105	;'i'
   859  007BEB  6C                 	db	108	;'l'
   860  007BEC  69                 	db	105	;'i'
   861  007BED  64                 	db	100	;'d'
   862  007BEE  61                 	db	97	;'a'
   863  007BEF  64                 	db	100	;'d'
   864  007BF0  65                 	db	101	;'e'
   865  007BF1  20                 	db	32
   866  007BF2  6E                 	db	110	;'n'
   867  007BF3  6F                 	db	111	;'o'
   868  007BF4  67                 	db	103	;'g'
   869  007BF5  6F                 	db	111	;'o'
   870  007BF6  76                 	db	118	;'v'
   871  007BF7  65                 	db	101	;'e'
   872  007BF8  72                 	db	114	;'r'
   873  007BF9  6E                 	db	110	;'n'
   874  007BFA  6F                 	db	111	;'o'
   875  007BFB  2C                 	db	44
   876  007BFC  20                 	db	32
   877  007BFD  73                 	db	115	;'s'
   878  007BFE  61                 	db	97	;'a'
   879  007BFF  75                 	db	117	;'u'
   880  007C00  64                 	db	100	;'d'
   881  007C01  65                 	db	101	;'e'
   882  007C02  20                 	db	32
   883  007C03  20                 	db	32
   884  007C04  65                 	db	101	;'e'
   885  007C05  20                 	db	32
   886  007C06  65                 	db	101	;'e'
   887  007C07  64                 	db	100	;'d'
   888  007C08  75                 	db	117	;'u'
   889  007C09  63                 	db	99	;'c'
   890  007C0A  61                 	db	97	;'a'
   891  007C0B  63                 	db	99	;'c'
   892  007C0C  61                 	db	97	;'a'
   893  007C0D  6F                 	db	111	;'o'
   894  007C0E  20                 	db	32
   895  007C0F  20                 	db	32
   896  007C10  20                 	db	32
   897  007C11  20                 	db	32
   898  007C12  20                 	db	32
   899  007C13  00                 	db	0
   900  007C14                     STR_22:
   901  007C14  52                 	db	82	;'R'
   902  007C15  65                 	db	101	;'e'
   903  007C16  76                 	db	118	;'v'
   904  007C17  6F                 	db	111	;'o'
   905  007C18  67                 	db	103	;'g'
   906  007C19  61                 	db	97	;'a'
   907  007C1A  63                 	db	99	;'c'
   908  007C1B  61                 	db	97	;'a'
   909  007C1C  6F                 	db	111	;'o'
   910  007C1D  20                 	db	32
   911  007C1E  64                 	db	100	;'d'
   912  007C1F  6F                 	db	111	;'o'
   913  007C20  20                 	db	32
   914  007C21  41                 	db	65	;'A'
   915  007C22  49                 	db	73	;'I'
   916  007C23  2D                 	db	45
   917  007C24  35                 	db	53	;'5'
   918  007C25  20                 	db	32
   919  007C26  65                 	db	101	;'e'
   920  007C27  20                 	db	32
   921  007C28  64                 	db	100	;'d'
   922  007C29  65                 	db	101	;'e'
   923  007C2A  20                 	db	32
   924  007C2B  6F                 	db	111	;'o'
   925  007C2C  75                 	db	117	;'u'
   926  007C2D  74                 	db	116	;'t'
   927  007C2E  72                 	db	114	;'r'
   928  007C2F  6F                 	db	111	;'o'
   929  007C30  73                 	db	115	;'s'
   930  007C31  20                 	db	32
   931  007C32  61                 	db	97	;'a'
   932  007C33  74                 	db	116	;'t'
   933  007C34  6F                 	db	111	;'o'
   934  007C35  73                 	db	115	;'s'
   935  007C36  20                 	db	32
   936  007C37  64                 	db	100	;'d'
   937  007C38  61                 	db	97	;'a'
   938  007C39  20                 	db	32
   939  007C3A  64                 	db	100	;'d'
   940  007C3B  69                 	db	105	;'i'
   941  007C3C  74                 	db	116	;'t'
   942  007C3D  61                 	db	97	;'a'
   943  007C3E  64                 	db	100	;'d'
   944  007C3F  75                 	db	117	;'u'
   945  007C40  72                 	db	114	;'r'
   946  007C41  61                 	db	97	;'a'
   947  007C42  00                 	db	0
   948  007C43                     STR_31:
   949  007C43  43                 	db	67	;'C'
   950  007C44  61                 	db	97	;'a'
   951  007C45  73                 	db	115	;'s'
   952  007C46  6F                 	db	111	;'o'
   953  007C47  73                 	db	115	;'s'
   954  007C48  20                 	db	32
   955  007C49  64                 	db	100	;'d'
   956  007C4A  65                 	db	101	;'e'
   957  007C4B  20                 	db	32
   958  007C4C  20                 	db	32
   959  007C4D  20                 	db	32
   960  007C4E  20                 	db	32
   961  007C4F  20                 	db	32
   962  007C50  20                 	db	32
   963  007C51  20                 	db	32
   964  007C52  20                 	db	32
   965  007C53  69                 	db	105	;'i'
   966  007C54  6E                 	db	110	;'n'
   967  007C55  74                 	db	116	;'t'
   968  007C56  6F                 	db	111	;'o'
   969  007C57  78                 	db	120	;'x'
   970  007C58  69                 	db	105	;'i'
   971  007C59  63                 	db	99	;'c'
   972  007C5A  61                 	db	97	;'a'
   973  007C5B  63                 	db	99	;'c'
   974  007C5C  61                 	db	97	;'a'
   975  007C5D  6F                 	db	111	;'o'
   976  007C5E  20                 	db	32
   977  007C5F  70                 	db	112	;'p'
   978  007C60  65                 	db	101	;'e'
   979  007C61  6C                 	db	108	;'l'
   980  007C62  61                 	db	97	;'a'
   981  007C63  63                 	db	99	;'c'
   982  007C64  65                 	db	101	;'e'
   983  007C65  72                 	db	114	;'r'
   984  007C66  76                 	db	118	;'v'
   985  007C67  65                 	db	101	;'e'
   986  007C68  6A                 	db	106	;'j'
   987  007C69  61                 	db	97	;'a'
   988  007C6A  20                 	db	32
   989  007C6B  42                 	db	66	;'B'
   990  007C6C  61                 	db	97	;'a'
   991  007C6D  63                 	db	99	;'c'
   992  007C6E  6B                 	db	107	;'k'
   993  007C6F  65                 	db	101	;'e'
   994  007C70  72                 	db	114	;'r'
   995  007C71  00                 	db	0
   996  007C72                     STR_16:
   997  007C72  42                 	db	66	;'B'
   998  007C73  72                 	db	114	;'r'
   999  007C74  61                 	db	97	;'a'
  1000  007C75  73                 	db	115	;'s'
  1001  007C76  69                 	db	105	;'i'
  1002  007C77  6C                 	db	108	;'l'
  1003  007C78  69                 	db	105	;'i'
  1004  007C79  61                 	db	97	;'a'
  1005  007C7A  20                 	db	32
  1006  007C7B  69                 	db	105	;'i'
  1007  007C7C  6E                 	db	110	;'n'
  1008  007C7D  61                 	db	97	;'a'
  1009  007C7E  75                 	db	117	;'u'
  1010  007C7F  67                 	db	103	;'g'
  1011  007C80  75                 	db	117	;'u'
  1012  007C81  72                 	db	114	;'r'
  1013  007C82  61                 	db	97	;'a'
  1014  007C83  64                 	db	100	;'d'
  1015  007C84  61                 	db	97	;'a'
  1016  007C85  20                 	db	32
  1017  007C86  70                 	db	112	;'p'
  1018  007C87  6F                 	db	111	;'o'
  1019  007C88  72                 	db	114	;'r'
  1020  007C89  20                 	db	32
  1021  007C8A  4A                 	db	74	;'J'
  1022  007C8B  75                 	db	117	;'u'
  1023  007C8C  73                 	db	115	;'s'
  1024  007C8D  63                 	db	99	;'c'
  1025  007C8E  65                 	db	101	;'e'
  1026  007C8F  6C                 	db	108	;'l'
  1027  007C90  69                 	db	105	;'i'
  1028  007C91  6E                 	db	110	;'n'
  1029  007C92  6F                 	db	111	;'o'
  1030  007C93  20                 	db	32
  1031  007C94  4B                 	db	75	;'K'
  1032  007C95  75                 	db	117	;'u'
  1033  007C96  62                 	db	98	;'b'
  1034  007C97  69                 	db	105	;'i'
  1035  007C98  74                 	db	116	;'t'
  1036  007C99  73                 	db	115	;'s'
  1037  007C9A  63                 	db	99	;'c'
  1038  007C9B  68                 	db	104	;'h'
  1039  007C9C  65                 	db	101	;'e'
  1040  007C9D  63                 	db	99	;'c'
  1041  007C9E  6B                 	db	107	;'k'
  1042  007C9F  00                 	db	0
  1043  007CA0                     STR_18:
  1044  007CA0  43                 	db	67	;'C'
  1045  007CA1  65                 	db	101	;'e'
  1046  007CA2  6E                 	db	110	;'n'
  1047  007CA3  74                 	db	116	;'t'
  1048  007CA4  65                 	db	101	;'e'
  1049  007CA5  6E                 	db	110	;'n'
  1050  007CA6  61                 	db	97	;'a'
  1051  007CA7  73                 	db	115	;'s'
  1052  007CA8  20                 	db	32
  1053  007CA9  64                 	db	100	;'d'
  1054  007CAA  65                 	db	101	;'e'
  1055  007CAB  20                 	db	32
  1056  007CAC  64                 	db	100	;'d'
  1057  007CAD  65                 	db	101	;'e'
  1058  007CAE  6E                 	db	110	;'n'
  1059  007CAF  75                 	db	117	;'u'
  1060  007CB0  6E                 	db	110	;'n'
  1061  007CB1  63                 	db	99	;'c'
  1062  007CB2  69                 	db	105	;'i'
  1063  007CB3  61                 	db	97	;'a'
  1064  007CB4  73                 	db	115	;'s'
  1065  007CB5  20                 	db	32
  1066  007CB6  64                 	db	100	;'d'
  1067  007CB7  65                 	db	101	;'e'
  1068  007CB8  20                 	db	32
  1069  007CB9  63                 	db	99	;'c'
  1070  007CBA  61                 	db	97	;'a'
  1071  007CBB  73                 	db	115	;'s'
  1072  007CBC  6F                 	db	111	;'o'
  1073  007CBD  73                 	db	115	;'s'
  1074  007CBE  20                 	db	32
  1075  007CBF  64                 	db	100	;'d'
  1076  007CC0  65                 	db	101	;'e'
  1077  007CC1  20                 	db	32
  1078  007CC2  74                 	db	116	;'t'
  1079  007CC3  6F                 	db	111	;'o'
  1080  007CC4  72                 	db	114	;'r'
  1081  007CC5  74                 	db	116	;'t'
  1082  007CC6  75                 	db	117	;'u'
  1083  007CC7  72                 	db	114	;'r'
  1084  007CC8  61                 	db	97	;'a'
  1085  007CC9  00                 	db	0
  1086  007CCA                     STR_5:
  1087  007CCA  52                 	db	82	;'R'
  1088  007CCB  65                 	db	101	;'e'
  1089  007CCC  76                 	db	118	;'v'
  1090  007CCD  6F                 	db	111	;'o'
  1091  007CCE  6C                 	db	108	;'l'
  1092  007CCF  75                 	db	117	;'u'
  1093  007CD0  63                 	db	99	;'c'
  1094  007CD1  61                 	db	97	;'a'
  1095  007CD2  6F                 	db	111	;'o'
  1096  007CD3  20                 	db	32
  1097  007CD4  63                 	db	99	;'c'
  1098  007CD5  6F                 	db	111	;'o'
  1099  007CD6  6E                 	db	110	;'n'
  1100  007CD7  73                 	db	115	;'s'
  1101  007CD8  74                 	db	116	;'t'
  1102  007CD9  69                 	db	105	;'i'
  1103  007CDA  74                 	db	116	;'t'
  1104  007CDB  75                 	db	117	;'u'
  1105  007CDC  63                 	db	99	;'c'
  1106  007CDD  69                 	db	105	;'i'
  1107  007CDE  6F                 	db	111	;'o'
  1108  007CDF  6E                 	db	110	;'n'
  1109  007CE0  61                 	db	97	;'a'
  1110  007CE1  6C                 	db	108	;'l'
  1111  007CE2  69                 	db	105	;'i'
  1112  007CE3  73                 	db	115	;'s'
  1113  007CE4  74                 	db	116	;'t'
  1114  007CE5  61                 	db	97	;'a'
  1115  007CE6  20                 	db	32
  1116  007CE7  65                 	db	101	;'e'
  1117  007CE8  6D                 	db	109	;'m'
  1118  007CE9  20                 	db	32
  1119  007CEA  53                 	db	83	;'S'
  1120  007CEB  61                 	db	97	;'a'
  1121  007CEC  6F                 	db	111	;'o'
  1122  007CED  20                 	db	32
  1123  007CEE  50                 	db	80	;'P'
  1124  007CEF  61                 	db	97	;'a'
  1125  007CF0  75                 	db	117	;'u'
  1126  007CF1  6C                 	db	108	;'l'
  1127  007CF2  6F                 	db	111	;'o'
  1128  007CF3  00                 	db	0
  1129  007CF4                     STR_2:
  1130  007CF4  46                 	db	70	;'F'
  1131  007CF5  75                 	db	117	;'u'
  1132  007CF6  6E                 	db	110	;'n'
  1133  007CF7  64                 	db	100	;'d'
  1134  007CF8  61                 	db	97	;'a'
  1135  007CF9  63                 	db	99	;'c'
  1136  007CFA  61                 	db	97	;'a'
  1137  007CFB  6F                 	db	111	;'o'
  1138  007CFC  20                 	db	32
  1139  007CFD  64                 	db	100	;'d'
  1140  007CFE  6F                 	db	111	;'o'
  1141  007CFF  20                 	db	32
  1142  007D00  70                 	db	112	;'p'
  1143  007D01  61                 	db	97	;'a'
  1144  007D02  72                 	db	114	;'r'
  1145  007D03  74                 	db	116	;'t'
  1146  007D04  69                 	db	105	;'i'
  1147  007D05  64                 	db	100	;'d'
  1148  007D06  6F                 	db	111	;'o'
  1149  007D07  20                 	db	32
  1150  007D08  63                 	db	99	;'c'
  1151  007D09  6F                 	db	111	;'o'
  1152  007D0A  6D                 	db	109	;'m'
  1153  007D0B  75                 	db	117	;'u'
  1154  007D0C  6E                 	db	110	;'n'
  1155  007D0D  69                 	db	105	;'i'
  1156  007D0E  73                 	db	115	;'s'
  1157  007D0F  74                 	db	116	;'t'
  1158  007D10  61                 	db	97	;'a'
  1159  007D11  20                 	db	32
  1160  007D12  64                 	db	100	;'d'
  1161  007D13  6F                 	db	111	;'o'
  1162  007D14  20                 	db	32
  1163  007D15  62                 	db	98	;'b'
  1164  007D16  72                 	db	114	;'r'
  1165  007D17  61                 	db	97	;'a'
  1166  007D18  73                 	db	115	;'s'
  1167  007D19  69                 	db	105	;'i'
  1168  007D1A  6C                 	db	108	;'l'
  1169  007D1B  00                 	db	0
  1170  007D1C                     STR_27:
  1171  007D1C  4C                 	db	76	;'L'
  1172  007D1D  75                 	db	117	;'u'
  1173  007D1E  6C                 	db	108	;'l'
  1174  007D1F  61                 	db	97	;'a'
  1175  007D20  20                 	db	32
  1176  007D21  E9                 	db	-23
  1177  007D22  20                 	db	32
  1178  007D23  65                 	db	101	;'e'
  1179  007D24  6C                 	db	108	;'l'
  1180  007D25  65                 	db	101	;'e'
  1181  007D26  69                 	db	105	;'i'
  1182  007D27  74                 	db	116	;'t'
  1183  007D28  6F                 	db	111	;'o'
  1184  007D29  20                 	db	32
  1185  007D2A  70                 	db	112	;'p'
  1186  007D2B  72                 	db	114	;'r'
  1187  007D2C  65                 	db	101	;'e'
  1188  007D2D  73                 	db	115	;'s'
  1189  007D2E  69                 	db	105	;'i'
  1190  007D2F  64                 	db	100	;'d'
  1191  007D30  65                 	db	101	;'e'
  1192  007D31  6E                 	db	110	;'n'
  1193  007D32  74                 	db	116	;'t'
  1194  007D33  65                 	db	101	;'e'
  1195  007D34  20                 	db	32
  1196  007D35  64                 	db	100	;'d'
  1197  007D36  61                 	db	97	;'a'
  1198  007D37  20                 	db	32
  1199  007D38  52                 	db	82	;'R'
  1200  007D39  65                 	db	101	;'e'
  1201  007D3A  70                 	db	112	;'p'
  1202  007D3B  FA                 	db	-6
  1203  007D3C  62                 	db	98	;'b'
  1204  007D3D  6C                 	db	108	;'l'
  1205  007D3E  69                 	db	105	;'i'
  1206  007D3F  63                 	db	99	;'c'
  1207  007D40  61                 	db	97	;'a'
  1208  007D41  00                 	db	0
  1209  007D42                     STR_6:
  1210  007D42  50                 	db	80	;'P'
  1211  007D43  72                 	db	114	;'r'
  1212  007D44  6F                 	db	111	;'o'
  1213  007D45  6D                 	db	109	;'m'
  1214  007D46  75                 	db	117	;'u'
  1215  007D47  6C                 	db	108	;'l'
  1216  007D48  67                 	db	103	;'g'
  1217  007D49  61                 	db	97	;'a'
  1218  007D4A  64                 	db	100	;'d'
  1219  007D4B  61                 	db	97	;'a'
  1220  007D4C  20                 	db	32
  1221  007D4D  61                 	db	97	;'a'
  1222  007D4E  20                 	db	32
  1223  007D4F  20                 	db	32
  1224  007D50  20                 	db	32
  1225  007D51  20                 	db	32
  1226  007D52  43                 	db	67	;'C'
  1227  007D53  6F                 	db	111	;'o'
  1228  007D54  6E                 	db	110	;'n'
  1229  007D55  73                 	db	115	;'s'
  1230  007D56  74                 	db	116	;'t'
  1231  007D57  69                 	db	105	;'i'
  1232  007D58  74                 	db	116	;'t'
  1233  007D59  75                 	db	117	;'u'
  1234  007D5A  69                 	db	105	;'i'
  1235  007D5B  63                 	db	99	;'c'
  1236  007D5C  61                 	db	97	;'a'
  1237  007D5D  6F                 	db	111	;'o'
  1238  007D5E  20                 	db	32
  1239  007D5F  64                 	db	100	;'d'
  1240  007D60  65                 	db	101	;'e'
  1241  007D61  20                 	db	32
  1242  007D62  31                 	db	49	;'1'
  1243  007D63  39                 	db	57	;'9'
  1244  007D64  33                 	db	51	;'3'
  1245  007D65  34                 	db	52	;'4'
  1246  007D66  00                 	db	0
  1247  007D67                     STR_17:
  1248  007D67  49                 	db	73	;'I'
  1249  007D68  6E                 	db	110	;'n'
  1250  007D69  69                 	db	105	;'i'
  1251  007D6A  63                 	db	99	;'c'
  1252  007D6B  69                 	db	105	;'i'
  1253  007D6C  6F                 	db	111	;'o'
  1254  007D6D  20                 	db	32
  1255  007D6E  64                 	db	100	;'d'
  1256  007D6F  69                 	db	105	;'i'
  1257  007D70  74                 	db	116	;'t'
  1258  007D71  61                 	db	97	;'a'
  1259  007D72  64                 	db	100	;'d'
  1260  007D73  75                 	db	117	;'u'
  1261  007D74  74                 	db	116	;'t'
  1262  007D75  61                 	db	97	;'a'
  1263  007D76  20                 	db	32
  1264  007D77  6D                 	db	109	;'m'
  1265  007D78  69                 	db	105	;'i'
  1266  007D79  6C                 	db	108	;'l'
  1267  007D7A  69                 	db	105	;'i'
  1268  007D7B  74                 	db	116	;'t'
  1269  007D7C  61                 	db	97	;'a'
  1270  007D7D  72                 	db	114	;'r'
  1271  007D7E  20                 	db	32
  1272  007D7F  6E                 	db	110	;'n'
  1273  007D80  6F                 	db	111	;'o'
  1274  007D81  20                 	db	32
  1275  007D82  62                 	db	98	;'b'
  1276  007D83  72                 	db	114	;'r'
  1277  007D84  61                 	db	97	;'a'
  1278  007D85  73                 	db	115	;'s'
  1279  007D86  69                 	db	105	;'i'
  1280  007D87  6C                 	db	108	;'l'
  1281  007D88  00                 	db	0
  1282  007D89                     STR_25:
  1283  007D89  43                 	db	67	;'C'
  1284  007D8A  6F                 	db	111	;'o'
  1285  007D8B  6E                 	db	110	;'n'
  1286  007D8C  67                 	db	103	;'g'
  1287  007D8D  65                 	db	101	;'e'
  1288  007D8E  6C                 	db	108	;'l'
  1289  007D8F  61                 	db	97	;'a'
  1290  007D90  6D                 	db	109	;'m'
  1291  007D91  65                 	db	101	;'e'
  1292  007D92  6E                 	db	110	;'n'
  1293  007D93  74                 	db	116	;'t'
  1294  007D94  6F                 	db	111	;'o'
  1295  007D95  20                 	db	32
  1296  007D96  64                 	db	100	;'d'
  1297  007D97  65                 	db	101	;'e'
  1298  007D98  20                 	db	32
  1299  007D99  63                 	db	99	;'c'
  1300  007D9A  6F                 	db	111	;'o'
  1301  007D9B  6E                 	db	110	;'n'
  1302  007D9C  74                 	db	116	;'t'
  1303  007D9D  61                 	db	97	;'a'
  1304  007D9E  73                 	db	115	;'s'
  1305  007D9F  20                 	db	32
  1306  007DA0  70                 	db	112	;'p'
  1307  007DA1  6F                 	db	111	;'o'
  1308  007DA2  72                 	db	114	;'r'
  1309  007DA3  20                 	db	32
  1310  007DA4  43                 	db	67	;'C'
  1311  007DA5  6F                 	db	111	;'o'
  1312  007DA6  6C                 	db	108	;'l'
  1313  007DA7  6C                 	db	108	;'l'
  1314  007DA8  6F                 	db	111	;'o'
  1315  007DA9  72                 	db	114	;'r'
  1316  007DAA  00                 	db	0
  1317  007DAB                     STR_3:
  1318  007DAB  51                 	db	81	;'Q'
  1319  007DAC  75                 	db	117	;'u'
  1320  007DAD  65                 	db	101	;'e'
  1321  007DAE  62                 	db	98	;'b'
  1322  007DAF  72                 	db	114	;'r'
  1323  007DB0  61                 	db	97	;'a'
  1324  007DB1  20                 	db	32
  1325  007DB2  64                 	db	100	;'d'
  1326  007DB3  61                 	db	97	;'a'
  1327  007DB4  20                 	db	32
  1328  007DB5  62                 	db	98	;'b'
  1329  007DB6  6F                 	db	111	;'o'
  1330  007DB7  6C                 	db	108	;'l'
  1331  007DB8  73                 	db	115	;'s'
  1332  007DB9  61                 	db	97	;'a'
  1333  007DBA  20                 	db	32
  1334  007DBB  64                 	db	100	;'d'
  1335  007DBC  65                 	db	101	;'e'
  1336  007DBD  20                 	db	32
  1337  007DBE  76                 	db	118	;'v'
  1338  007DBF  61                 	db	97	;'a'
  1339  007DC0  6C                 	db	108	;'l'
  1340  007DC1  6F                 	db	111	;'o'
  1341  007DC2  72                 	db	114	;'r'
  1342  007DC3  65                 	db	101	;'e'
  1343  007DC4  73                 	db	115	;'s'
  1344  007DC5  20                 	db	32
  1345  007DC6  64                 	db	100	;'d'
  1346  007DC7  65                 	db	101	;'e'
  1347  007DC8  20                 	db	32
  1348  007DC9  4E                 	db	78	;'N'
  1349  007DCA  59                 	db	89	;'Y'
  1350  007DCB  00                 	db	0
  1351  007DCC                     STR_8:
  1352  007DCC  49                 	db	73	;'I'
  1353  007DCD  6E                 	db	110	;'n'
  1354  007DCE  69                 	db	105	;'i'
  1355  007DCF  63                 	db	99	;'c'
  1356  007DD0  69                 	db	105	;'i'
  1357  007DD1  6F                 	db	111	;'o'
  1358  007DD2  20                 	db	32
  1359  007DD3  64                 	db	100	;'d'
  1360  007DD4  61                 	db	97	;'a'
  1361  007DD5  20                 	db	32
  1362  007DD6  73                 	db	115	;'s'
  1363  007DD7  65                 	db	101	;'e'
  1364  007DD8  67                 	db	103	;'g'
  1365  007DD9  75                 	db	117	;'u'
  1366  007DDA  6E                 	db	110	;'n'
  1367  007DDB  64                 	db	100	;'d'
  1368  007DDC  61                 	db	97	;'a'
  1369  007DDD  20                 	db	32
  1370  007DDE  67                 	db	103	;'g'
  1371  007DDF  75                 	db	117	;'u'
  1372  007DE0  65                 	db	101	;'e'
  1373  007DE1  72                 	db	114	;'r'
  1374  007DE2  72                 	db	114	;'r'
  1375  007DE3  61                 	db	97	;'a'
  1376  007DE4  20                 	db	32
  1377  007DE5  6D                 	db	109	;'m'
  1378  007DE6  75                 	db	117	;'u'
  1379  007DE7  6E                 	db	110	;'n'
  1380  007DE8  64                 	db	100	;'d'
  1381  007DE9  69                 	db	105	;'i'
  1382  007DEA  61                 	db	97	;'a'
  1383  007DEB  6C                 	db	108	;'l'
  1384  007DEC  00                 	db	0
  1385  007DED                     STR_19:
  1386  007DED  43                 	db	67	;'C'
  1387  007DEE  6F                 	db	111	;'o'
  1388  007DEF  6E                 	db	110	;'n'
  1389  007DF0  73                 	db	115	;'s'
  1390  007DF1  74                 	db	116	;'t'
  1391  007DF2  69                 	db	105	;'i'
  1392  007DF3  74                 	db	116	;'t'
  1393  007DF4  75                 	db	117	;'u'
  1394  007DF5  69                 	db	105	;'i'
  1395  007DF6  63                 	db	99	;'c'
  1396  007DF7  61                 	db	97	;'a'
  1397  007DF8  6F                 	db	111	;'o'
  1398  007DF9  20                 	db	32
  1399  007DFA  64                 	db	100	;'d'
  1400  007DFB  61                 	db	97	;'a'
  1401  007DFC  20                 	db	32
  1402  007DFD  64                 	db	100	;'d'
  1403  007DFE  69                 	db	105	;'i'
  1404  007DFF  74                 	db	116	;'t'
  1405  007E00  61                 	db	97	;'a'
  1406  007E01  74                 	db	116	;'t'
  1407  007E02  75                 	db	117	;'u'
  1408  007E03  72                 	db	114	;'r'
  1409  007E04  61                 	db	97	;'a'
  1410  007E05  20                 	db	32
  1411  007E06  6D                 	db	109	;'m'
  1412  007E07  69                 	db	105	;'i'
  1413  007E08  6C                 	db	108	;'l'
  1414  007E09  69                 	db	105	;'i'
  1415  007E0A  74                 	db	116	;'t'
  1416  007E0B  61                 	db	97	;'a'
  1417  007E0C  72                 	db	114	;'r'
  1418  007E0D  00                 	db	0
  1419  007E0E                     STR_29:
  1420  007E0E  49                 	db	73	;'I'
  1421  007E0F  6D                 	db	109	;'m'
  1422  007E10  70                 	db	112	;'p'
  1423  007E11  65                 	db	101	;'e'
  1424  007E12  61                 	db	97	;'a'
  1425  007E13  63                 	db	99	;'c'
  1426  007E14  68                 	db	104	;'h'
  1427  007E15  6D                 	db	109	;'m'
  1428  007E16  65                 	db	101	;'e'
  1429  007E17  6E                 	db	110	;'n'
  1430  007E18  74                 	db	116	;'t'
  1431  007E19  20                 	db	32
  1432  007E1A  64                 	db	100	;'d'
  1433  007E1B  65                 	db	101	;'e'
  1434  007E1C  20                 	db	32
  1435  007E1D  44                 	db	68	;'D'
  1436  007E1E  69                 	db	105	;'i'
  1437  007E1F  6C                 	db	108	;'l'
  1438  007E20  6D                 	db	109	;'m'
  1439  007E21  61                 	db	97	;'a'
  1440  007E22  20                 	db	32
  1441  007E23  52                 	db	82	;'R'
  1442  007E24  6F                 	db	111	;'o'
  1443  007E25  75                 	db	117	;'u'
  1444  007E26  73                 	db	115	;'s'
  1445  007E27  73                 	db	115	;'s'
  1446  007E28  65                 	db	101	;'e'
  1447  007E29  66                 	db	102	;'f'
  1448  007E2A  66                 	db	102	;'f'
  1449  007E2B  00                 	db	0
  1450  007E2C                     STR_9:
  1451  007E2C  49                 	db	73	;'I'
  1452  007E2D  6E                 	db	110	;'n'
  1453  007E2E  73                 	db	115	;'s'
  1454  007E2F  74                 	db	116	;'t'
  1455  007E30  69                 	db	105	;'i'
  1456  007E31  74                 	db	116	;'t'
  1457  007E32  75                 	db	117	;'u'
  1458  007E33  69                 	db	105	;'i'
  1459  007E34  63                 	db	99	;'c'
  1460  007E35  61                 	db	97	;'a'
  1461  007E36  6F                 	db	111	;'o'
  1462  007E37  20                 	db	32
  1463  007E38  64                 	db	100	;'d'
  1464  007E39  6F                 	db	111	;'o'
  1465  007E3A  20                 	db	32
  1466  007E3B  73                 	db	115	;'s'
  1467  007E3C  61                 	db	97	;'a'
  1468  007E3D  6C                 	db	108	;'l'
  1469  007E3E  61                 	db	97	;'a'
  1470  007E3F  72                 	db	114	;'r'
  1471  007E40  69                 	db	105	;'i'
  1472  007E41  6F                 	db	111	;'o'
  1473  007E42  20                 	db	32
  1474  007E43  6D                 	db	109	;'m'
  1475  007E44  69                 	db	105	;'i'
  1476  007E45  6E                 	db	110	;'n'
  1477  007E46  69                 	db	105	;'i'
  1478  007E47  6D                 	db	109	;'m'
  1479  007E48  6F                 	db	111	;'o'
  1480  007E49  00                 	db	0
  1481  007E4A                     STR_26:
  1482  007E4A  42                 	db	66	;'B'
  1483  007E4B  72                 	db	114	;'r'
  1484  007E4C  61                 	db	97	;'a'
  1485  007E4D  73                 	db	115	;'s'
  1486  007E4E  69                 	db	105	;'i'
  1487  007E4F  6C                 	db	108	;'l'
  1488  007E50  20                 	db	32
  1489  007E51  67                 	db	103	;'g'
  1490  007E52  61                 	db	97	;'a'
  1491  007E53  6E                 	db	110	;'n'
  1492  007E54  68                 	db	104	;'h'
  1493  007E55  61                 	db	97	;'a'
  1494  007E56  20                 	db	32
  1495  007E57  61                 	db	97	;'a'
  1496  007E58  20                 	db	32
  1497  007E59  63                 	db	99	;'c'
  1498  007E5A  6F                 	db	111	;'o'
  1499  007E5B  70                 	db	112	;'p'
  1500  007E5C  61                 	db	97	;'a'
  1501  007E5D  20                 	db	32
  1502  007E5E  64                 	db	100	;'d'
  1503  007E5F  6F                 	db	111	;'o'
  1504  007E60  20                 	db	32
  1505  007E61  6D                 	db	109	;'m'
  1506  007E62  75                 	db	117	;'u'
  1507  007E63  6E                 	db	110	;'n'
  1508  007E64  64                 	db	100	;'d'
  1509  007E65  6F                 	db	111	;'o'
  1510  007E66  00                 	db	0
  1511  007E67                     STR_7:
  1512  007E67  49                 	db	73	;'I'
  1513  007E68  6D                 	db	109	;'m'
  1514  007E69  70                 	db	112	;'p'
  1515  007E6A  6C                 	db	108	;'l'
  1516  007E6B  61                 	db	97	;'a'
  1517  007E6C  6E                 	db	110	;'n'
  1518  007E6D  74                 	db	116	;'t'
  1519  007E6E  61                 	db	97	;'a'
  1520  007E6F  63                 	db	99	;'c'
  1521  007E70  61                 	db	97	;'a'
  1522  007E71  6F                 	db	111	;'o'
  1523  007E72  20                 	db	32
  1524  007E73  64                 	db	100	;'d'
  1525  007E74  6F                 	db	111	;'o'
  1526  007E75  20                 	db	32
  1527  007E76  45                 	db	69	;'E'
  1528  007E77  73                 	db	115	;'s'
  1529  007E78  74                 	db	116	;'t'
  1530  007E79  61                 	db	97	;'a'
  1531  007E7A  64                 	db	100	;'d'
  1532  007E7B  6F                 	db	111	;'o'
  1533  007E7C  20                 	db	32
  1534  007E7D  4E                 	db	78	;'N'
  1535  007E7E  6F                 	db	111	;'o'
  1536  007E7F  76                 	db	118	;'v'
  1537  007E80  6F                 	db	111	;'o'
  1538  007E81  00                 	db	0
  1539  007E82                     STR_28:
  1540  007E82  45                 	db	69	;'E'
  1541  007E83  6C                 	db	108	;'l'
  1542  007E84  65                 	db	101	;'e'
  1543  007E85  69                 	db	105	;'i'
  1544  007E86  63                 	db	99	;'c'
  1545  007E87  61                 	db	97	;'a'
  1546  007E88  6F                 	db	111	;'o'
  1547  007E89  20                 	db	32
  1548  007E8A  64                 	db	100	;'d'
  1549  007E8B  65                 	db	101	;'e'
  1550  007E8C  20                 	db	32
  1551  007E8D  44                 	db	68	;'D'
  1552  007E8E  69                 	db	105	;'i'
  1553  007E8F  6C                 	db	108	;'l'
  1554  007E90  6D                 	db	109	;'m'
  1555  007E91  61                 	db	97	;'a'
  1556  007E92  20                 	db	32
  1557  007E93  52                 	db	82	;'R'
  1558  007E94  6F                 	db	111	;'o'
  1559  007E95  75                 	db	117	;'u'
  1560  007E96  73                 	db	115	;'s'
  1561  007E97  73                 	db	115	;'s'
  1562  007E98  65                 	db	101	;'e'
  1563  007E99  66                 	db	102	;'f'
  1564  007E9A  66                 	db	102	;'f'
  1565  007E9B  00                 	db	0
  1566  007E9C                     STR_13:
  1567  007E9C  52                 	db	82	;'R'
  1568  007E9D  65                 	db	101	;'e'
  1569  007E9E  64                 	db	100	;'d'
  1570  007E9F  65                 	db	101	;'e'
  1571  007EA0  6D                 	db	109	;'m'
  1572  007EA1  6F                 	db	111	;'o'
  1573  007EA2  63                 	db	99	;'c'
  1574  007EA3  72                 	db	114	;'r'
  1575  007EA4  61                 	db	97	;'a'
  1576  007EA5  74                 	db	116	;'t'
  1577  007EA6  69                 	db	105	;'i'
  1578  007EA7  7A                 	db	122	;'z'
  1579  007EA8  61                 	db	97	;'a'
  1580  007EA9  63                 	db	99	;'c'
  1581  007EAA  61                 	db	97	;'a'
  1582  007EAB  6F                 	db	111	;'o'
  1583  007EAC  64                 	db	100	;'d'
  1584  007EAD  6F                 	db	111	;'o'
  1585  007EAE  20                 	db	32
  1586  007EAF  42                 	db	66	;'B'
  1587  007EB0  72                 	db	114	;'r'
  1588  007EB1  61                 	db	97	;'a'
  1589  007EB2  73                 	db	115	;'s'
  1590  007EB3  69                 	db	105	;'i'
  1591  007EB4  6C                 	db	108	;'l'
  1592  007EB5  00                 	db	0
  1593  007EB6                     STR_30:
  1594  007EB6  45                 	db	69	;'E'
  1595  007EB7  6C                 	db	108	;'l'
  1596  007EB8  65                 	db	101	;'e'
  1597  007EB9  69                 	db	105	;'i'
  1598  007EBA  63                 	db	99	;'c'
  1599  007EBB  61                 	db	97	;'a'
  1600  007EBC  6F                 	db	111	;'o'
  1601  007EBD  20                 	db	32
  1602  007EBE  64                 	db	100	;'d'
  1603  007EBF  65                 	db	101	;'e'
  1604  007EC0  20                 	db	32
  1605  007EC1  4A                 	db	74	;'J'
  1606  007EC2  61                 	db	97	;'a'
  1607  007EC3  69                 	db	105	;'i'
  1608  007EC4  72                 	db	114	;'r'
  1609  007EC5  20                 	db	32
  1610  007EC6  42                 	db	66	;'B'
  1611  007EC7  6F                 	db	111	;'o'
  1612  007EC8  6C                 	db	108	;'l'
  1613  007EC9  73                 	db	115	;'s'
  1614  007ECA  6F                 	db	111	;'o'
  1615  007ECB  6E                 	db	110	;'n'
  1616  007ECC  61                 	db	97	;'a'
  1617  007ECD  72                 	db	114	;'r'
  1618  007ECE  6F                 	db	111	;'o'
  1619  007ECF  00                 	db	0
  1620  007ED0                     STR_15:
  1621  007ED0  53                 	db	83	;'S'
  1622  007ED1  75                 	db	117	;'u'
  1623  007ED2  69                 	db	105	;'i'
  1624  007ED3  63                 	db	99	;'c'
  1625  007ED4  69                 	db	105	;'i'
  1626  007ED5  64                 	db	100	;'d'
  1627  007ED6  6F                 	db	111	;'o'
  1628  007ED7  20                 	db	32
  1629  007ED8  64                 	db	100	;'d'
  1630  007ED9  65                 	db	101	;'e'
  1631  007EDA  20                 	db	32
  1632  007EDB  47                 	db	71	;'G'
  1633  007EDC  65                 	db	101	;'e'
  1634  007EDD  74                 	db	116	;'t'
  1635  007EDE  75                 	db	117	;'u'
  1636  007EDF  6C                 	db	108	;'l'
  1637  007EE0  69                 	db	105	;'i'
  1638  007EE1  6F                 	db	111	;'o'
  1639  007EE2  20                 	db	32
  1640  007EE3  56                 	db	86	;'V'
  1641  007EE4  61                 	db	97	;'a'
  1642  007EE5  72                 	db	114	;'r'
  1643  007EE6  67                 	db	103	;'g'
  1644  007EE7  61                 	db	97	;'a'
  1645  007EE8  73                 	db	115	;'s'
  1646  007EE9  00                 	db	0
  1647  007EEA                     STR_24:
  1648  007EEA  43                 	db	67	;'C'
  1649  007EEB  6F                 	db	111	;'o'
  1650  007EEC  6C                 	db	108	;'l'
  1651  007EED  6C                 	db	108	;'l'
  1652  007EEE  6F                 	db	111	;'o'
  1653  007EEF  72                 	db	114	;'r'
  1654  007EF0  20                 	db	32
  1655  007EF1  65                 	db	101	;'e'
  1656  007EF2  6C                 	db	108	;'l'
  1657  007EF3  65                 	db	101	;'e'
  1658  007EF4  69                 	db	105	;'i'
  1659  007EF5  74                 	db	116	;'t'
  1660  007EF6  6F                 	db	111	;'o'
  1661  007EF7  20                 	db	32
  1662  007EF8  70                 	db	112	;'p'
  1663  007EF9  72                 	db	114	;'r'
  1664  007EFA  65                 	db	101	;'e'
  1665  007EFB  73                 	db	115	;'s'
  1666  007EFC  69                 	db	105	;'i'
  1667  007EFD  64                 	db	100	;'d'
  1668  007EFE  65                 	db	101	;'e'
  1669  007EFF  6E                 	db	110	;'n'
  1670  007F00  74                 	db	116	;'t'
  1671  007F01  65                 	db	101	;'e'
  1672  007F02  00                 	db	0
  1673  007F03                     STR_23:
  1674  007F03  46                 	db	70	;'F'
  1675  007F04  69                 	db	105	;'i'
  1676  007F05  6D                 	db	109	;'m'
  1677  007F06  20                 	db	32
  1678  007F07  64                 	db	100	;'d'
  1679  007F08  61                 	db	97	;'a'
  1680  007F09  20                 	db	32
  1681  007F0A  64                 	db	100	;'d'
  1682  007F0B  69                 	db	105	;'i'
  1683  007F0C  74                 	db	116	;'t'
  1684  007F0D  61                 	db	97	;'a'
  1685  007F0E  64                 	db	100	;'d'
  1686  007F0F  75                 	db	117	;'u'
  1687  007F10  72                 	db	114	;'r'
  1688  007F11  61                 	db	97	;'a'
  1689  007F12  20                 	db	32
  1690  007F13  6D                 	db	109	;'m'
  1691  007F14  69                 	db	105	;'i'
  1692  007F15  6C                 	db	108	;'l'
  1693  007F16  69                 	db	105	;'i'
  1694  007F17  74                 	db	116	;'t'
  1695  007F18  61                 	db	97	;'a'
  1696  007F19  72                 	db	114	;'r'
  1697  007F1A  00                 	db	0
  1698  007F1B                     STR_12:
  1699  007F1B  46                 	db	70	;'F'
  1700  007F1C  69                 	db	105	;'i'
  1701  007F1D  6D                 	db	109	;'m'
  1702  007F1E  20                 	db	32
  1703  007F1F  64                 	db	100	;'d'
  1704  007F20  61                 	db	97	;'a'
  1705  007F21  20                 	db	32
  1706  007F22  73                 	db	115	;'s'
  1707  007F23  65                 	db	101	;'e'
  1708  007F24  67                 	db	103	;'g'
  1709  007F25  75                 	db	117	;'u'
  1710  007F26  6E                 	db	110	;'n'
  1711  007F27  64                 	db	100	;'d'
  1712  007F28  61                 	db	97	;'a'
  1713  007F29  20                 	db	32
  1714  007F2A  20                 	db	32
  1715  007F2B  67                 	db	103	;'g'
  1716  007F2C  75                 	db	117	;'u'
  1717  007F2D  65                 	db	101	;'e'
  1718  007F2E  72                 	db	114	;'r'
  1719  007F2F  72                 	db	114	;'r'
  1720  007F30  61                 	db	97	;'a'
  1721  007F31  00                 	db	0
  1722  007F32                     STR_11:
  1723  007F32  46                 	db	70	;'F'
  1724  007F33  69                 	db	105	;'i'
  1725  007F34  6D                 	db	109	;'m'
  1726  007F35  20                 	db	32
  1727  007F36  64                 	db	100	;'d'
  1728  007F37  61                 	db	97	;'a'
  1729  007F38  20                 	db	32
  1730  007F39  45                 	db	69	;'E'
  1731  007F3A  72                 	db	114	;'r'
  1732  007F3B  61                 	db	97	;'a'
  1733  007F3C  20                 	db	32
  1734  007F3D  20                 	db	32
  1735  007F3E  20                 	db	32
  1736  007F3F  20                 	db	32
  1737  007F40  20                 	db	32
  1738  007F41  20                 	db	32
  1739  007F42  56                 	db	86	;'V'
  1740  007F43  61                 	db	97	;'a'
  1741  007F44  72                 	db	114	;'r'
  1742  007F45  67                 	db	103	;'g'
  1743  007F46  61                 	db	97	;'a'
  1744  007F47  73                 	db	115	;'s'
  1745  007F48  00                 	db	0
  1746  007F49                     STR_4:
  1747  007F49  49                 	db	73	;'I'
  1748  007F4A  6E                 	db	110	;'n'
  1749  007F4B  69                 	db	105	;'i'
  1750  007F4C  63                 	db	99	;'c'
  1751  007F4D  69                 	db	105	;'i'
  1752  007F4E  6F                 	db	111	;'o'
  1753  007F4F  20                 	db	32
  1754  007F50  64                 	db	100	;'d'
  1755  007F51  61                 	db	97	;'a'
  1756  007F52  20                 	db	32
  1757  007F53  45                 	db	69	;'E'
  1758  007F54  72                 	db	114	;'r'
  1759  007F55  61                 	db	97	;'a'
  1760  007F56  20                 	db	32
  1761  007F57  56                 	db	86	;'V'
  1762  007F58  61                 	db	97	;'a'
  1763  007F59  72                 	db	114	;'r'
  1764  007F5A  67                 	db	103	;'g'
  1765  007F5B  61                 	db	97	;'a'
  1766  007F5C  73                 	db	115	;'s'
  1767  007F5D  00                 	db	0
  1768  007F5E                     STR_14:
  1769  007F5E  43                 	db	67	;'C'
  1770  007F5F  72                 	db	114	;'r'
  1771  007F60  69                 	db	105	;'i'
  1772  007F61  61                 	db	97	;'a'
  1773  007F62  63                 	db	99	;'c'
  1774  007F63  61                 	db	97	;'a'
  1775  007F64  6F                 	db	111	;'o'
  1776  007F65  20                 	db	32
  1777  007F66  64                 	db	100	;'d'
  1778  007F67  61                 	db	97	;'a'
  1779  007F68  20                 	db	32
  1780  007F69  50                 	db	80	;'P'
  1781  007F6A  65                 	db	101	;'e'
  1782  007F6B  74                 	db	116	;'t'
  1783  007F6C  72                 	db	114	;'r'
  1784  007F6D  6F                 	db	111	;'o'
  1785  007F6E  62                 	db	98	;'b'
  1786  007F6F  72                 	db	114	;'r'
  1787  007F70  61                 	db	97	;'a'
  1788  007F71  73                 	db	115	;'s'
  1789  007F72  00                 	db	0
  1790  007F73                     STR_20:
  1791  007F73  49                 	db	73	;'I'
  1792  007F74  6D                 	db	109	;'m'
  1793  007F75  70                 	db	112	;'p'
  1794  007F76  6C                 	db	108	;'l'
  1795  007F77  61                 	db	97	;'a'
  1796  007F78  6E                 	db	110	;'n'
  1797  007F79  74                 	db	116	;'t'
  1798  007F7A  61                 	db	97	;'a'
  1799  007F7B  63                 	db	99	;'c'
  1800  007F7C  61                 	db	97	;'a'
  1801  007F7D  6F                 	db	111	;'o'
  1802  007F7E  20                 	db	32
  1803  007F7F  64                 	db	100	;'d'
  1804  007F80  6F                 	db	111	;'o'
  1805  007F81  20                 	db	32
  1806  007F82  41                 	db	65	;'A'
  1807  007F83  49                 	db	73	;'I'
  1808  007F84  2D                 	db	45
  1809  007F85  35                 	db	53	;'5'
  1810  007F86  00                 	db	0
  1811  007F87                     STR_10:
  1812  007F87  46                 	db	70	;'F'
  1813  007F88  75                 	db	117	;'u'
  1814  007F89  6E                 	db	110	;'n'
  1815  007F8A  64                 	db	100	;'d'
  1816  007F8B  61                 	db	97	;'a'
  1817  007F8C  63                 	db	99	;'c'
  1818  007F8D  61                 	db	97	;'a'
  1819  007F8E  6F                 	db	111	;'o'
  1820  007F8F  20                 	db	32
  1821  007F90  64                 	db	100	;'d'
  1822  007F91  61                 	db	97	;'a'
  1823  007F92  20                 	db	32
  1824  007F93  4F                 	db	79	;'O'
  1825  007F94  4E                 	db	78	;'N'
  1826  007F95  55                 	db	85	;'U'
  1827  007F96  20                 	db	32
  1828  007F97  20                 	db	32
  1829  007F98  00                 	db	0
  1830  007F99                     STR_47:
  1831  007F99  44                 	db	68	;'D'
  1832  007F9A  65                 	db	101	;'e'
  1833  007F9B  73                 	db	115	;'s'
  1834  007F9C  65                 	db	101	;'e'
  1835  007F9D  6E                 	db	110	;'n'
  1836  007F9E  76                 	db	118	;'v'
  1837  007F9F  6F                 	db	111	;'o'
  1838  007FA0  6C                 	db	108	;'l'
  1839  007FA1  76                 	db	118	;'v'
  1840  007FA2  69                 	db	105	;'i'
  1841  007FA3  64                 	db	100	;'d'
  1842  007FA4  6F                 	db	111	;'o'
  1843  007FA5  20                 	db	32
  1844  007FA6  50                 	db	80	;'P'
  1845  007FA7  6F                 	db	111	;'o'
  1846  007FA8  72                 	db	114	;'r'
  1847  007FA9  00                 	db	0
  1848  007FAA                     STR_48:
  1849  007FAA  4D                 	db	77	;'M'
  1850  007FAB  61                 	db	97	;'a'
  1851  007FAC  72                 	db	114	;'r'
  1852  007FAD  69                 	db	105	;'i'
  1853  007FAE  61                 	db	97	;'a'
  1854  007FAF  6E                 	db	110	;'n'
  1855  007FB0  61                 	db	97	;'a'
  1856  007FB1  20                 	db	32
  1857  007FB2  54                 	db	84	;'T'
  1858  007FB3  6F                 	db	111	;'o'
  1859  007FB4  6E                 	db	110	;'n'
  1860  007FB5  69                 	db	105	;'i'
  1861  007FB6  6E                 	db	110	;'n'
  1862  007FB7  69                 	db	105	;'i'
  1863  007FB8  00                 	db	0
  1864  007FB9                     STR_44:
  1865  007FB9  20                 	db	32
  1866  007FBA  20                 	db	32
  1867  007FBB  20                 	db	32
  1868  007FBC  4F                 	db	79	;'O'
  1869  007FBD  63                 	db	99	;'c'
  1870  007FBE  6F                 	db	111	;'o'
  1871  007FBF  72                 	db	114	;'r'
  1872  007FC0  72                 	db	114	;'r'
  1873  007FC1  69                 	db	105	;'i'
  1874  007FC2  64                 	db	100	;'d'
  1875  007FC3  6F                 	db	111	;'o'
  1876  007FC4  73                 	db	115	;'s'
  1877  007FC5  20                 	db	32
  1878  007FC6  00                 	db	0
  1879  007FC7                     STR_42:
  1880  007FC7  49                 	db	73	;'I'
  1881  007FC8  6E                 	db	110	;'n'
  1882  007FC9  73                 	db	115	;'s'
  1883  007FCA  69                 	db	105	;'i'
  1884  007FCB  72                 	db	114	;'r'
  1885  007FCC  61                 	db	97	;'a'
  1886  007FCD  20                 	db	32
  1887  007FCE  6F                 	db	111	;'o'
  1888  007FCF  20                 	db	32
  1889  007FD0  41                 	db	65	;'A'
  1890  007FD1  6E                 	db	110	;'n'
  1891  007FD2  6F                 	db	111	;'o'
  1892  007FD3  3A                 	db	58	;':'
  1893  007FD4  00                 	db	0
  1894  007FD5                     STR_40:
  1895  007FD5  20                 	db	32
  1896  007FD6  20                 	db	32
  1897  007FD7  20                 	db	32
  1898  007FD8  20                 	db	32
  1899  007FD9  20                 	db	32
  1900  007FDA  56                 	db	86	;'V'
  1901  007FDB  69                 	db	105	;'i'
  1902  007FDC  6E                 	db	110	;'n'
  1903  007FDD  64                 	db	100	;'d'
  1904  007FDE  6F                 	db	111	;'o'
  1905  007FDF  00                 	db	0
  1906  007FE0                     STR_43:
  1907  007FE0  20                 	db	32
  1908  007FE1  20                 	db	32
  1909  007FE2  20                 	db	32
  1910  007FE3  20                 	db	32
  1911  007FE4  20                 	db	32
  1912  007FE5  46                 	db	70	;'F'
  1913  007FE6  61                 	db	97	;'a'
  1914  007FE7  74                 	db	116	;'t'
  1915  007FE8  6F                 	db	111	;'o'
  1916  007FE9  73                 	db	115	;'s'
  1917  007FEA  00                 	db	0
  1918  007FEB                     STR_39:
  1919  007FEB  20                 	db	32
  1920  007FEC  20                 	db	32
  1921  007FED  20                 	db	32
  1922  007FEE  20                 	db	32
  1923  007FEF  20                 	db	32
  1924  007FF0  20                 	db	32
  1925  007FF1  42                 	db	66	;'B'
  1926  007FF2  65                 	db	101	;'e'
  1927  007FF3  6D                 	db	109	;'m'
  1928  007FF4  00                 	db	0
  1929  007FF5                     STR_46:
  1930  007FF5  20                 	db	32
  1931  007FF6  20                 	db	32
  1932  007FF7  20                 	db	32
  1933  007FF8  20                 	db	32
  1934  007FF9  20                 	db	32
  1935  007FFA  20                 	db	32
  1936  007FFB  46                 	db	70	;'F'
  1937  007FFC  69                 	db	105	;'i'
  1938  007FFD  6D                 	db	109	;'m'
  1939  007FFE  00                 	db	0
  1940  007FFF  00                 	db	0	; dummy byte at the end
  1941  0000                     
  1942                           ; #config settings
  1943                           
  1944                           	psect	cinit
  1945  006224                     __pcinit:
  1946                           	callstack 0
  1947  006224                     start_initialization:
  1948                           	callstack 0
  1949  006224                     __initialization:
  1950                           	callstack 0
  1951                           
  1952                           ; Initialize objects allocated to BANK0 (124 bytes)
  1953                           ; load TBLPTR registers with __pidataBANK0
  1954  006224  0EA6               	movlw	low __pidataBANK0
  1955  006226  6EF6               	movwf	tblptrl,c
  1956  006228  0E64               	movlw	high __pidataBANK0
  1957  00622A  6EF7               	movwf	tblptrh,c
  1958  00622C  0E00               	movlw	low (__pidataBANK0 shr (0+16))
  1959  00622E  6EF8               	movwf	tblptru,c
  1960  006230  EE00  F080         	lfsr	0,__pdataBANK0
  1961  006234  EE10 F07C          	lfsr	1,124
  1962  006238                     copy_data0:
  1963  006238  0009               	tblrd		*+
  1964  00623A  CFF5 FFEE          	movff	tablat,postinc0
  1965  00623E  50E5               	movf	postdec1,w,c
  1966  006240  50E1               	movf	fsr1l,w,c
  1967  006242  E1FA               	bnz	copy_data0
  1968                           
  1969                           ; Initialize objects allocated to COMRAM (6 bytes)
  1970                           ; load TBLPTR registers with __pidataCOMRAM
  1971  006244  0E12               	movlw	low __pidataCOMRAM
  1972  006246  6EF6               	movwf	tblptrl,c
  1973  006248  0E60               	movlw	high __pidataCOMRAM
  1974  00624A  6EF7               	movwf	tblptrh,c
  1975  00624C  0E00               	movlw	low (__pidataCOMRAM shr (0+16))
  1976  00624E  6EF8               	movwf	tblptru,c
  1977  006250  EE00  F079         	lfsr	0,__pdataCOMRAM
  1978  006254  EE10 F006          	lfsr	1,6
  1979  006258                     copy_data1:
  1980  006258  0009               	tblrd		*+
  1981  00625A  CFF5 FFEE          	movff	tablat,postinc0
  1982  00625E  50E5               	movf	postdec1,w,c
  1983  006260  50E1               	movf	fsr1l,w,c
  1984  006262  E1FA               	bnz	copy_data1
  1985                           
  1986                           ; Clear objects allocated to BANK0 (2 bytes)
  1987  006264  0100               	movlb	0
  1988  006266  6BFD               	clrf	(__pbssBANK0+1)& (0+255),b
  1989  006268  6BFC               	clrf	__pbssBANK0& (0+255),b
  1990                           
  1991                           ; Clear objects allocated to COMRAM (10 bytes)
  1992  00626A  EE00  F06F         	lfsr	0,__pbssCOMRAM
  1993  00626E  0E0A               	movlw	10
  1994  006270                     clear_0:
  1995  006270  6AEE               	clrf	postinc0,c
  1996  006272  06E8               	decf	wreg,f,c
  1997  006274  E1FD               	bnz	clear_0
  1998  006276                     end_of_initialization:
  1999                           	callstack 0
  2000  006276                     __end_of__initialization:
  2001                           	callstack 0
  2002  006276  0E00               	movlw	low (__Lmediumconst shr (0+16))
  2003  006278  6EF8               	movwf	tblptru,c
  2004  00627A  0100               	movlb	0
  2005  00627C  EF14  F036         	goto	_main	;jump to C main() function
  2006                           
  2007                           	psect	bssCOMRAM
  2008  00006F                     __pbssCOMRAM:
  2009                           	callstack 0
  2010  00006F                     kpDebounce@valorAntigo:
  2011                           	callstack 0
  2012  00006F                     	ds	2
  2013  000071                     kpDebounce@valorNovo:
  2014                           	callstack 0
  2015  000071                     	ds	2
  2016  000073                     _v3:
  2017                           	callstack 0
  2018  000073                     	ds	1
  2019  000074                     _v2:
  2020                           	callstack 0
  2021  000074                     	ds	1
  2022  000075                     _v1:
  2023                           	callstack 0
  2024  000075                     	ds	1
  2025  000076                     _v0:
  2026                           	callstack 0
  2027  000076                     	ds	1
  2028  000077                     _display:
  2029                           	callstack 0
  2030  000077                     	ds	1
  2031  000078                     kpDebounce@tempo:
  2032                           	callstack 0
  2033  000078                     	ds	1
  2034                           
  2035                           	psect	dataCOMRAM
  2036  000079                     __pdataCOMRAM:
  2037                           	callstack 0
  2038  000079                     _atrasoMin:
  2039                           	callstack 0
  2040  000079                     	ds	2
  2041  00007B                     _delay:
  2042                           	callstack 0
  2043  00007B                     	ds	2
  2044  00007D                     _atrasoMax:
  2045                           	callstack 0
  2046  00007D                     	ds	2
  2047                           
  2048                           	psect	bssBANK0
  2049  0000FC                     __pbssBANK0:
  2050                           	callstack 0
  2051  0000FC                     _valor:
  2052                           	callstack 0
  2053  0000FC                     	ds	2
  2054                           
  2055                           	psect	dataBANK0
  2056  000080                     __pdataBANK0:
  2057                           	callstack 0
  2058  000080                     _vetImpLeds:
  2059                           	callstack 0
  2060  000080                     	ds	52
  2061  0000B4                     _vetAnos:
  2062                           	callstack 0
  2063  0000B4                     	ds	52
  2064  0000E8                     _vetLed:
  2065                           	callstack 0
  2066  0000E8                     	ds	14
  2067  0000F6                     _atraso:
  2068                           	callstack 0
  2069  0000F6                     	ds	2
  2070  0000F8                     _atraso_min:
  2071                           	callstack 0
  2072  0000F8                     	ds	2
  2073  0000FA                     _atrasoMed:
  2074                           	callstack 0
  2075  0000FA                     	ds	2
  2076                           
  2077                           	psect	cstackCOMRAM
  2078  000001                     __pcstackCOMRAM:
  2079                           	callstack 0
  2080  000001                     ?_strlen:
  2081                           	callstack 0
  2082  000001                     ?_verificaAno:
  2083                           	callstack 0
  2084  000001                     ?___wmul:
  2085                           	callstack 0
  2086  000001                     ?___awdiv:
  2087                           	callstack 0
  2088  000001                     ?___lwdiv:
  2089                           	callstack 0
  2090  000001                     lcd_wr@val:
  2091                           	callstack 0
  2092  000001                     verificaAno@ano:
  2093                           	callstack 0
  2094  000001                     digitalWrite@pin:
  2095                           	callstack 0
  2096  000001                     pinMode@pin:
  2097                           	callstack 0
  2098  000001                     ___wmul@multiplier:
  2099                           	callstack 0
  2100  000001                     ___awdiv@dividend:
  2101                           	callstack 0
  2102  000001                     ___lwdiv@dividend:
  2103                           	callstack 0
  2104  000001                     strlen@s:
  2105                           	callstack 0
  2106                           
  2107                           ; 2 bytes @ 0x0
  2108  000001                     	ds	2
  2109  000003                     digitalWrite@value:
  2110                           	callstack 0
  2111  000003                     pinMode@type:
  2112                           	callstack 0
  2113  000003                     ___wmul@multiplicand:
  2114                           	callstack 0
  2115  000003                     ___awdiv@divisor:
  2116                           	callstack 0
  2117  000003                     ___lwdiv@divisor:
  2118                           	callstack 0
  2119  000003                     strlen@a:
  2120                           	callstack 0
  2121                           
  2122                           ; 2 bytes @ 0x2
  2123  000003                     	ds	2
  2124  000005                     ??_digitalWrite:
  2125  000005                     ??_pinMode:
  2126  000005                     ___awdiv@counter:
  2127                           	callstack 0
  2128  000005                     verificaAno@ano2:
  2129                           	callstack 0
  2130  000005                     ___wmul@product:
  2131                           	callstack 0
  2132  000005                     ___lwdiv@quotient:
  2133                           	callstack 0
  2134                           
  2135                           ; 2 bytes @ 0x4
  2136  000005                     	ds	1
  2137  000006                     ___awdiv@sign:
  2138                           	callstack 0
  2139                           
  2140                           ; 1 bytes @ 0x5
  2141  000006                     	ds	1
  2142  000007                     ??_ssdUpdate:
  2143  000007                     ___lwdiv@counter:
  2144                           	callstack 0
  2145  000007                     verificaAno@i:
  2146                           	callstack 0
  2147  000007                     atraso_ms@t:
  2148                           	callstack 0
  2149  000007                     ___awdiv@quotient:
  2150                           	callstack 0
  2151                           
  2152                           ; 2 bytes @ 0x6
  2153  000007                     	ds	1
  2154  000008                     ??_pwmSet1:
  2155                           
  2156                           ; 1 bytes @ 0x7
  2157  000008                     	ds	1
  2158  000009                     ?___awmod:
  2159                           	callstack 0
  2160  000009                     verificaAno@j:
  2161                           	callstack 0
  2162  000009                     atraso_ms@i:
  2163                           	callstack 0
  2164  000009                     ___awmod@dividend:
  2165                           	callstack 0
  2166                           
  2167                           ; 2 bytes @ 0x8
  2168  000009                     	ds	1
  2169  00000A                     pwmSet1@porcento:
  2170                           	callstack 0
  2171                           
  2172                           ; 1 bytes @ 0x9
  2173  00000A                     	ds	1
  2174  00000B                     atraso_ms@j:
  2175                           	callstack 0
  2176  00000B                     acendeLed@ano:
  2177                           	callstack 0
  2178  00000B                     pwmSet1@val:
  2179                           	callstack 0
  2180  00000B                     ___awmod@divisor:
  2181                           	callstack 0
  2182                           
  2183                           ; 2 bytes @ 0xA
  2184  00000B                     	ds	1
  2185  00000C                     atraso_ms@k:
  2186                           	callstack 0
  2187                           
  2188                           ; 1 bytes @ 0xB
  2189  00000C                     	ds	1
  2190  00000D                     ??_acendeLed:
  2191  00000D                     lcd_cmd@val:
  2192                           	callstack 0
  2193  00000D                     lcd_dat@val:
  2194                           	callstack 0
  2195  00000D                     ___awmod@counter:
  2196                           	callstack 0
  2197  00000D                     tc_tecla@timeout:
  2198                           	callstack 0
  2199                           
  2200                           ; 2 bytes @ 0xC
  2201  00000D                     	ds	1
  2202  00000E                     ___awmod@sign:
  2203                           	callstack 0
  2204  00000E                     lcd_str@str:
  2205                           	callstack 0
  2206                           
  2207                           ; 2 bytes @ 0xD
  2208  00000E                     	ds	1
  2209  00000F                     ssdDigit@pos:
  2210                           	callstack 0
  2211  00000F                     acendeLed@a:
  2212                           	callstack 0
  2213  00000F                     tc_tecla@to:
  2214                           	callstack 0
  2215                           
  2216                           ; 2 bytes @ 0xE
  2217  00000F                     	ds	1
  2218  000010                     ??_lcd_str:
  2219  000010                     ssdDigit@val:
  2220                           	callstack 0
  2221                           
  2222                           ; 1 bytes @ 0xF
  2223  000010                     	ds	1
  2224  000011                     tc_tecla@tmp:
  2225                           	callstack 0
  2226  000011                     acendeLed@i:
  2227                           	callstack 0
  2228                           
  2229                           ; 2 bytes @ 0x10
  2230  000011                     	ds	1
  2231  000012                     lcd_str@i:
  2232                           	callstack 0
  2233  000012                     tc_tecla@ret:
  2234                           	callstack 0
  2235                           
  2236                           ; 1 bytes @ 0x11
  2237  000012                     	ds	1
  2238  000013                     tc_tecla@i:
  2239                           	callstack 0
  2240  000013                     fatos@str:
  2241                           	callstack 0
  2242                           
  2243                           ; 2 bytes @ 0x12
  2244  000013                     	ds	1
  2245  000014                     ?_teclado:
  2246                           	callstack 0
  2247                           
  2248                           ; 2 bytes @ 0x13
  2249  000014                     	ds	1
  2250  000015                     ??_fatos:
  2251                           
  2252                           ; 1 bytes @ 0x14
  2253  000015                     	ds	1
  2254  000016                     ??_teclado:
  2255                           
  2256                           ; 1 bytes @ 0x15
  2257  000016                     	ds	4
  2258  00001A                     teclado@a:
  2259                           	callstack 0
  2260                           
  2261                           ; 2 bytes @ 0x19
  2262  00001A                     	ds	1
  2263  00001B                     fatos@str1:
  2264                           	callstack 0
  2265                           
  2266                           ; 17 bytes @ 0x1A
  2267  00001B                     	ds	1
  2268  00001C                     teclado@b:
  2269                           	callstack 0
  2270                           
  2271                           ; 2 bytes @ 0x1B
  2272  00001C                     	ds	2
  2273  00001E                     teclado@c:
  2274                           	callstack 0
  2275                           
  2276                           ; 2 bytes @ 0x1D
  2277  00001E                     	ds	2
  2278  000020                     teclado@d:
  2279                           	callstack 0
  2280                           
  2281                           ; 2 bytes @ 0x1F
  2282  000020                     	ds	2
  2283  000022                     teclado@ano1:
  2284                           	callstack 0
  2285                           
  2286                           ; 2 bytes @ 0x21
  2287  000022                     	ds	2
  2288  000024                     teclado@sequenciaTeclado:
  2289                           	callstack 0
  2290                           
  2291                           ; 8 bytes @ 0x23
  2292  000024                     	ds	8
  2293  00002C                     teclado@tecla:
  2294                           	callstack 0
  2295  00002C                     fatos@str2:
  2296                           	callstack 0
  2297                           
  2298                           ; 17 bytes @ 0x2B
  2299  00002C                     	ds	2
  2300  00002E                     teclado@i_98:
  2301                           	callstack 0
  2302                           
  2303                           ; 2 bytes @ 0x2D
  2304  00002E                     	ds	15
  2305  00003D                     fatos@str3:
  2306                           	callstack 0
  2307                           
  2308                           ; 17 bytes @ 0x3C
  2309  00003D                     	ds	17
  2310  00004E                     fatos@str4:
  2311                           	callstack 0
  2312                           
  2313                           ; 17 bytes @ 0x4D
  2314  00004E                     	ds	17
  2315  00005F                     fatos@i:
  2316                           	callstack 0
  2317                           
  2318                           ; 2 bytes @ 0x5E
  2319  00005F                     	ds	2
  2320  000061                     bancoDados@ano:
  2321                           	callstack 0
  2322                           
  2323                           ; 2 bytes @ 0x60
  2324  000061                     	ds	2
  2325  000063                     ??_bancoDados:
  2326                           
  2327                           ; 1 bytes @ 0x62
  2328  000063                     	ds	2
  2329  000065                     bancoDados@a:
  2330                           	callstack 0
  2331                           
  2332                           ; 2 bytes @ 0x64
  2333  000065                     	ds	2
  2334  000067                     main@i:
  2335                           	callstack 0
  2336                           
  2337                           ; 2 bytes @ 0x66
  2338  000067                     	ds	2
  2339  000069                     main@cooler:
  2340                           	callstack 0
  2341                           
  2342                           ; 2 bytes @ 0x68
  2343  000069                     	ds	2
  2344  00006B                     main@ano:
  2345                           	callstack 0
  2346                           
  2347                           ; 2 bytes @ 0x6A
  2348  00006B                     	ds	2
  2349  00006D                     main@a:
  2350                           	callstack 0
  2351                           
  2352                           ; 2 bytes @ 0x6C
  2353  00006D                     	ds	2
  2354                           
  2355 ;;
  2356 ;;Main: autosize = 0, tempsize = 0, incstack = 0, save=0
  2357 ;;
  2358 ;; *************** function _main *****************
  2359 ;; Defined at:
  2360 ;;		line 307 in file "main.c"
  2361 ;; Parameters:    Size  Location     Type
  2362 ;;		None
  2363 ;; Auto vars:     Size  Location     Type
  2364 ;;  a               2  108[COMRAM] int 
  2365 ;;  ano             2  106[COMRAM] int 
  2366 ;;  cooler          2  104[COMRAM] int 
  2367 ;;  i               2  102[COMRAM] int 
  2368 ;; Return value:  Size  Location     Type
  2369 ;;                  1    wreg      void 
  2370 ;; Registers used:
  2371 ;;		wreg, fsr0l, fsr0h, fsr2l, fsr2h, status,2, status,0, tblptrl, tblptrh, tblptru, prodl, prodh, cstack
  2372 ;; Tracked objects:
  2373 ;;		On entry : 0/0
  2374 ;;		On exit  : 0/0
  2375 ;;		Unchanged: 0/0
  2376 ;; Data sizes:     COMRAM   BANK0   BANK1   BANK2   BANK3   BANK4   BANK5
  2377 ;;      Params:         0       0       0       0       0       0       0
  2378 ;;      Locals:         8       0       0       0       0       0       0
  2379 ;;      Temps:          0       0       0       0       0       0       0
  2380 ;;      Totals:         8       0       0       0       0       0       0
  2381 ;;Total ram usage:        8 bytes
  2382 ;; Hardware stack levels required when called:    5
  2383 ;; This function calls:
  2384 ;;		___awdiv
  2385 ;;		___awmod
  2386 ;;		___wmul
  2387 ;;		_acendeLed
  2388 ;;		_atraso_ms
  2389 ;;		_bancoDados
  2390 ;;		_fatos
  2391 ;;		_init
  2392 ;;		_lcd_cmd
  2393 ;;		_lcd_init
  2394 ;;		_lcd_str
  2395 ;;		_limpaTela
  2396 ;;		_pwmInit
  2397 ;;		_pwmSet1
  2398 ;;		_ssdDigit
  2399 ;;		_ssdInit
  2400 ;;		_ssdUpdate
  2401 ;;		_teclado
  2402 ;;		_verificaAno
  2403 ;; This function is called by:
  2404 ;;		Startup code after reset
  2405 ;; This function uses a non-reentrant model
  2406 ;;
  2407                           
  2408                           	psect	text0
  2409  006C28                     __ptext0:
  2410                           	callstack 0
  2411  006C28                     _main:
  2412                           	callstack 26
  2413  006C28                     
  2414                           ;main.c: 308:     int i;;main.c: 309:     int cooler;;main.c: 311:     (*(volatile __nea
      +                          r unsigned char*)0xFC1) = 0x06;
  2415  006C28  0E06               	movlw	6
  2416  006C2A  6EC1               	movwf	193,c	;volatile
  2417                           
  2418                           ;main.c: 312:     (*(volatile __near unsigned char*)0xF93) = 0x01;
  2419  006C2C  0E01               	movlw	1
  2420  006C2E  6E93               	movwf	147,c	;volatile
  2421                           
  2422                           ;main.c: 313:     (*(volatile __near unsigned char*)0xF94) = 0x00;
  2423  006C30  0E00               	movlw	0
  2424  006C32  6E94               	movwf	148,c	;volatile
  2425                           
  2426                           ;main.c: 314:     (*(volatile __near unsigned char*)0xF95) = 0x00;
  2427  006C34  0E00               	movlw	0
  2428  006C36  6E95               	movwf	149,c	;volatile
  2429                           
  2430                           ;main.c: 315:     (*(volatile __near unsigned char*)0xF96) = 0x00;
  2431  006C38  0E00               	movlw	0
  2432  006C3A  6E96               	movwf	150,c	;volatile
  2433                           
  2434                           ;main.c: 316:     (*(volatile __near unsigned char*)0xF93) = 0xF8;
  2435  006C3C  0EF8               	movlw	248
  2436  006C3E  6E93               	movwf	147,c	;volatile
  2437  006C40                     
  2438                           ;main.c: 318:     lcd_init();
  2439  006C40  ECE4  F030         	call	_lcd_init	;wreg free
  2440  006C44                     
  2441                           ;main.c: 319:     init();
  2442  006C44  EC72  F031         	call	_init	;wreg free
  2443  006C48                     
  2444                           ;main.c: 320:     ssdInit();
  2445  006C48  EC8D  F030         	call	_ssdInit	;wreg free
  2446  006C4C                     
  2447                           ;main.c: 321:     pwmInit();
  2448  006C4C  EC10  F030         	call	_pwmInit	;wreg free
  2449  006C50                     
  2450                           ;main.c: 322:     atraso_ms(atrasoMax);
  2451  006C50  C07D  F007         	movff	_atrasoMax,atraso_ms@t
  2452  006C54  C07E  F008         	movff	_atrasoMax+1,atraso_ms@t+1
  2453  006C58  EC40  F031         	call	_atraso_ms	;wreg free
  2454  006C5C  EC03  F034         	call	_teclado	;wreg free
  2455  006C60                     
  2456                           ;main.c: 324:     ano = 2023;
  2457  006C60  0E07               	movlw	7
  2458  006C62  6E6C               	movwf	(main@ano+1)^0,c
  2459  006C64  0EE7               	movlw	231
  2460  006C66  6E6B               	movwf	main@ano^0,c
  2461  006C68                     
  2462                           ;main.c: 325:     int a = verificaAno(ano);
  2463  006C68  0E07               	movlw	7
  2464  006C6A  6E02               	movwf	(verificaAno@ano+1)^0,c
  2465  006C6C  0EE7               	movlw	231
  2466  006C6E  6E01               	movwf	verificaAno@ano^0,c
  2467  006C70  EC9B  F033         	call	_verificaAno	;wreg free
  2468  006C74  C001  F06D         	movff	?_verificaAno,main@a
  2469  006C78  C002  F06E         	movff	?_verificaAno+1,main@a+1
  2470  006C7C                     
  2471                           ;main.c: 326:     for (i = 0; i < 1000; i++) {
  2472  006C7C  0E00               	movlw	0
  2473  006C7E  6E68               	movwf	(main@i+1)^0,c
  2474  006C80  0E00               	movlw	0
  2475  006C82  6E67               	movwf	main@i^0,c
  2476  006C84                     l2684:
  2477                           
  2478                           ;main.c: 327:         ssdDigit((a / 1000) % 10, 0);
  2479  006C84  0E00               	movlw	0
  2480  006C86  6E0F               	movwf	ssdDigit@pos^0,c
  2481  006C88  0E03               	movlw	3
  2482  006C8A  6E04               	movwf	(___awdiv@divisor+1)^0,c
  2483  006C8C  0EE8               	movlw	232
  2484  006C8E  6E03               	movwf	___awdiv@divisor^0,c
  2485  006C90  C06D  F001         	movff	main@a,___awdiv@dividend
  2486  006C94  C06E  F002         	movff	main@a+1,___awdiv@dividend+1
  2487  006C98  EC39  F033         	call	___awdiv	;wreg free
  2488  006C9C  C001  F009         	movff	?___awdiv,___awmod@dividend
  2489  006CA0  C002  F00A         	movff	?___awdiv+1,___awmod@dividend+1
  2490  006CA4  0E00               	movlw	0
  2491  006CA6  6E0C               	movwf	(___awmod@divisor+1)^0,c
  2492  006CA8  0E0A               	movlw	10
  2493  006CAA  6E0B               	movwf	___awmod@divisor^0,c
  2494  006CAC  ECE1  F032         	call	___awmod	;wreg free
  2495  006CB0  5009               	movf	?___awmod^0,w,c
  2496  006CB2  ECB8  F030         	call	_ssdDigit
  2497                           
  2498                           ;main.c: 328:         ssdDigit((a / 100) % 10, 1);
  2499  006CB6  0E01               	movlw	1
  2500  006CB8  6E0F               	movwf	ssdDigit@pos^0,c
  2501  006CBA  0E00               	movlw	0
  2502  006CBC  6E04               	movwf	(___awdiv@divisor+1)^0,c
  2503  006CBE  0E64               	movlw	100
  2504  006CC0  6E03               	movwf	___awdiv@divisor^0,c
  2505  006CC2  C06D  F001         	movff	main@a,___awdiv@dividend
  2506  006CC6  C06E  F002         	movff	main@a+1,___awdiv@dividend+1
  2507  006CCA  EC39  F033         	call	___awdiv	;wreg free
  2508  006CCE  C001  F009         	movff	?___awdiv,___awmod@dividend
  2509  006CD2  C002  F00A         	movff	?___awdiv+1,___awmod@dividend+1
  2510  006CD6  0E00               	movlw	0
  2511  006CD8  6E0C               	movwf	(___awmod@divisor+1)^0,c
  2512  006CDA  0E0A               	movlw	10
  2513  006CDC  6E0B               	movwf	___awmod@divisor^0,c
  2514  006CDE  ECE1  F032         	call	___awmod	;wreg free
  2515  006CE2  5009               	movf	?___awmod^0,w,c
  2516  006CE4  ECB8  F030         	call	_ssdDigit
  2517                           
  2518                           ;main.c: 329:         ssdDigit((a / 10) % 10, 2);
  2519  006CE8  0E02               	movlw	2
  2520  006CEA  6E0F               	movwf	ssdDigit@pos^0,c
  2521  006CEC  0E00               	movlw	0
  2522  006CEE  6E04               	movwf	(___awdiv@divisor+1)^0,c
  2523  006CF0  0E0A               	movlw	10
  2524  006CF2  6E03               	movwf	___awdiv@divisor^0,c
  2525  006CF4  C06D  F001         	movff	main@a,___awdiv@dividend
  2526  006CF8  C06E  F002         	movff	main@a+1,___awdiv@dividend+1
  2527  006CFC  EC39  F033         	call	___awdiv	;wreg free
  2528  006D00  C001  F009         	movff	?___awdiv,___awmod@dividend
  2529  006D04  C002  F00A         	movff	?___awdiv+1,___awmod@dividend+1
  2530  006D08  0E00               	movlw	0
  2531  006D0A  6E0C               	movwf	(___awmod@divisor+1)^0,c
  2532  006D0C  0E0A               	movlw	10
  2533  006D0E  6E0B               	movwf	___awmod@divisor^0,c
  2534  006D10  ECE1  F032         	call	___awmod	;wreg free
  2535  006D14  5009               	movf	?___awmod^0,w,c
  2536  006D16  ECB8  F030         	call	_ssdDigit
  2537                           
  2538                           ;main.c: 330:         ssdDigit((a /1 )% 10, 3);
  2539  006D1A  0E03               	movlw	3
  2540  006D1C  6E0F               	movwf	ssdDigit@pos^0,c
  2541  006D1E  C06D  F009         	movff	main@a,___awmod@dividend
  2542  006D22  C06E  F00A         	movff	main@a+1,___awmod@dividend+1
  2543  006D26  0E00               	movlw	0
  2544  006D28  6E0C               	movwf	(___awmod@divisor+1)^0,c
  2545  006D2A  0E0A               	movlw	10
  2546  006D2C  6E0B               	movwf	___awmod@divisor^0,c
  2547  006D2E  ECE1  F032         	call	___awmod	;wreg free
  2548  006D32  5009               	movf	?___awmod^0,w,c
  2549  006D34  ECB8  F030         	call	_ssdDigit
  2550  006D38                     
  2551                           ;main.c: 331:         ssdUpdate();
  2552  006D38  EC87  F034         	call	_ssdUpdate	;wreg free
  2553  006D3C                     
  2554                           ;main.c: 332:     }
  2555  006D3C  4A67               	infsnz	main@i^0,f,c
  2556  006D3E  2A68               	incf	(main@i+1)^0,f,c
  2557  006D40  BE68               	btfsc	(main@i+1)^0,7,c
  2558  006D42  EFAC  F036         	goto	u2191
  2559  006D46  0EE8               	movlw	232
  2560  006D48  5C67               	subwf	main@i^0,w,c
  2561  006D4A  0E03               	movlw	3
  2562  006D4C  5868               	subwfb	(main@i+1)^0,w,c
  2563  006D4E  A0D8               	btfss	status,0,c
  2564  006D50  EFAC  F036         	goto	u2191
  2565  006D54  EFAE  F036         	goto	u2190
  2566  006D58                     u2191:
  2567  006D58  EF42  F036         	goto	l2684
  2568  006D5C                     u2190:
  2569  006D5C                     
  2570                           ;main.c: 333:     cooler = 95;
  2571  006D5C  0E00               	movlw	0
  2572  006D5E  6E6A               	movwf	(main@cooler+1)^0,c
  2573  006D60  0E5F               	movlw	95
  2574  006D62  6E69               	movwf	main@cooler^0,c
  2575                           
  2576                           ;main.c: 334:     while(cooler == 95){
  2577  006D64  EF28  F037         	goto	l2740
  2578  006D68                     l2694:
  2579                           
  2580                           ;main.c: 335:         pwmSet1(cooler);
  2581  006D68  5069               	movf	main@cooler^0,w,c
  2582  006D6A  ECA7  F031         	call	_pwmSet1
  2583  006D6E                     
  2584                           ;main.c: 336:         lcd_cmd(0x80);
  2585  006D6E  0E80               	movlw	128
  2586  006D70  EC42  F030         	call	_lcd_cmd
  2587  006D74                     
  2588                           ;main.c: 337:         lcd_cmd(0x01);
  2589  006D74  0E01               	movlw	1
  2590  006D76  EC42  F030         	call	_lcd_cmd
  2591  006D7A                     
  2592                           ;main.c: 338:         lcd_cmd(0xC0);
  2593  006D7A  0EC0               	movlw	192
  2594  006D7C  EC42  F030         	call	_lcd_cmd
  2595  006D80                     
  2596                           ;main.c: 339:         lcd_str("     Fatos");
  2597  006D80  0EE0               	movlw	low STR_43
  2598  006D82  6E0E               	movwf	lcd_str@str^0,c
  2599  006D84  0E7F               	movlw	high STR_43
  2600  006D86  6E0F               	movwf	(lcd_str@str+1)^0,c
  2601  006D88  EC17  F032         	call	_lcd_str	;wreg free
  2602  006D8C                     
  2603                           ;main.c: 340:         lcd_cmd(0x90);
  2604  006D8C  0E90               	movlw	144
  2605  006D8E  EC42  F030         	call	_lcd_cmd
  2606  006D92                     
  2607                           ;main.c: 341:         lcd_str("   Ocorridos ");
  2608  006D92  0EB9               	movlw	low STR_44
  2609  006D94  6E0E               	movwf	lcd_str@str^0,c
  2610  006D96  0E7F               	movlw	high STR_44
  2611  006D98  6E0F               	movwf	(lcd_str@str+1)^0,c
  2612  006D9A  EC17  F032         	call	_lcd_str	;wreg free
  2613  006D9E                     
  2614                           ;main.c: 342:         atraso_ms(atrasoMax);
  2615  006D9E  C07D  F007         	movff	_atrasoMax,atraso_ms@t
  2616  006DA2  C07E  F008         	movff	_atrasoMax+1,atraso_ms@t+1
  2617  006DA6  EC40  F031         	call	_atraso_ms	;wreg free
  2618  006DAA                     
  2619                           ;main.c: 343:         bancoDados(ano);
  2620  006DAA  C06B  F061         	movff	main@ano,bancoDados@ano
  2621  006DAE  C06C  F062         	movff	main@ano+1,bancoDados@ano+1
  2622  006DB2  ECAE  F03A         	call	_bancoDados	;wreg free
  2623  006DB6                     
  2624                           ;main.c: 344:         atraso_ms(atrasoMax);
  2625  006DB6  C07D  F007         	movff	_atrasoMax,atraso_ms@t
  2626  006DBA  C07E  F008         	movff	_atrasoMax+1,atraso_ms@t+1
  2627  006DBE  EC40  F031         	call	_atraso_ms	;wreg free
  2628  006DC2                     
  2629                           ;main.c: 345:         fatos("Verifique a     importancia do  ano nos LEDs               
      +                           ");
  2630  006DC2  0E12               	movlw	low STR_45
  2631  006DC4  6E13               	movwf	fatos@str^0,c
  2632  006DC6  0E7A               	movlw	high STR_45
  2633  006DC8  6E14               	movwf	(fatos@str+1)^0,c
  2634  006DCA  EC82  F039         	call	_fatos	;wreg free
  2635  006DCE                     
  2636                           ;main.c: 346:         acendeLed(ano);
  2637  006DCE  C06B  F00B         	movff	main@ano,acendeLed@ano
  2638  006DD2  C06C  F00C         	movff	main@ano+1,acendeLed@ano+1
  2639  006DD6  EC91  F032         	call	_acendeLed	;wreg free
  2640  006DDA                     
  2641                           ;main.c: 347:         atraso_ms(atrasoMax * 2);
  2642  006DDA  90D8               	bcf	status,0,c
  2643  006DDC  347D               	rlcf	_atrasoMax^0,w,c
  2644  006DDE  6E07               	movwf	atraso_ms@t^0,c
  2645  006DE0  347E               	rlcf	(_atrasoMax+1)^0,w,c
  2646  006DE2  6E08               	movwf	(atraso_ms@t+1)^0,c
  2647  006DE4  EC40  F031         	call	_atraso_ms	;wreg free
  2648  006DE8                     
  2649                           ;main.c: 348:         limpaTela();
  2650  006DE8  EC57  F030         	call	_limpaTela	;wreg free
  2651  006DEC                     
  2652                           ;main.c: 349:         lcd_cmd(0x80);
  2653  006DEC  0E80               	movlw	128
  2654  006DEE  EC42  F030         	call	_lcd_cmd
  2655  006DF2                     
  2656                           ;main.c: 350:         lcd_str("      Fim");
  2657  006DF2  0EF5               	movlw	low STR_46
  2658  006DF4  6E0E               	movwf	lcd_str@str^0,c
  2659  006DF6  0E7F               	movlw	high STR_46
  2660  006DF8  6E0F               	movwf	(lcd_str@str+1)^0,c
  2661  006DFA  EC17  F032         	call	_lcd_str	;wreg free
  2662  006DFE                     
  2663                           ;main.c: 351:         cooler = 0;
  2664  006DFE  0E00               	movlw	0
  2665  006E00  6E6A               	movwf	(main@cooler+1)^0,c
  2666  006E02  0E00               	movlw	0
  2667  006E04  6E69               	movwf	main@cooler^0,c
  2668  006E06                     
  2669                           ;main.c: 352:         pwmSet1(cooler);
  2670  006E06  0E00               	movlw	0
  2671  006E08  ECA7  F031         	call	_pwmSet1
  2672  006E0C                     
  2673                           ;main.c: 353:         lcd_cmd(0x90);
  2674  006E0C  0E90               	movlw	144
  2675  006E0E  EC42  F030         	call	_lcd_cmd
  2676  006E12                     
  2677                           ;main.c: 354:         lcd_str("Desenvolvido Por");
  2678  006E12  0E99               	movlw	low STR_47
  2679  006E14  6E0E               	movwf	lcd_str@str^0,c
  2680  006E16  0E7F               	movlw	high STR_47
  2681  006E18  6E0F               	movwf	(lcd_str@str+1)^0,c
  2682  006E1A  EC17  F032         	call	_lcd_str	;wreg free
  2683  006E1E                     
  2684                           ;main.c: 355:         lcd_cmd(0xD0);
  2685  006E1E  0ED0               	movlw	208
  2686  006E20  EC42  F030         	call	_lcd_cmd
  2687  006E24                     
  2688                           ;main.c: 356:         lcd_str("Mariana Tonini");
  2689  006E24  0EAA               	movlw	low STR_48
  2690  006E26  6E0E               	movwf	lcd_str@str^0,c
  2691  006E28  0E7F               	movlw	high STR_48
  2692  006E2A  6E0F               	movwf	(lcd_str@str+1)^0,c
  2693  006E2C  EC17  F032         	call	_lcd_str	;wreg free
  2694  006E30                     
  2695                           ;main.c: 357:         atraso_ms(atrasoMax * 5);
  2696  006E30  C07D  F001         	movff	_atrasoMax,___wmul@multiplier
  2697  006E34  C07E  F002         	movff	_atrasoMax+1,___wmul@multiplier+1
  2698  006E38  0E00               	movlw	0
  2699  006E3A  6E04               	movwf	(___wmul@multiplicand+1)^0,c
  2700  006E3C  0E05               	movlw	5
  2701  006E3E  6E03               	movwf	___wmul@multiplicand^0,c
  2702  006E40  EC1A  F030         	call	___wmul	;wreg free
  2703  006E44  C001  F007         	movff	?___wmul,atraso_ms@t
  2704  006E48  C002  F008         	movff	?___wmul+1,atraso_ms@t+1
  2705  006E4C  EC40  F031         	call	_atraso_ms	;wreg free
  2706  006E50                     l2740:
  2707                           
  2708                           ;main.c: 334:     while(cooler == 95){
  2709  006E50  0E5F               	movlw	95
  2710  006E52  1869               	xorwf	main@cooler^0,w,c
  2711  006E54  106A               	iorwf	(main@cooler+1)^0,w,c
  2712  006E56  B4D8               	btfsc	status,2,c
  2713  006E58  EF30  F037         	goto	u2201
  2714  006E5C  EF32  F037         	goto	u2200
  2715  006E60                     u2201:
  2716  006E60  EFB4  F036         	goto	l2694
  2717  006E64                     u2200:
  2718  006E64  EF00  F000         	goto	start
  2719  006E68                     __end_of_main:
  2720                           	callstack 0
  2721                           
  2722 ;; *************** function _teclado *****************
  2723 ;; Defined at:
  2724 ;;		line 33 in file "main.c"
  2725 ;; Parameters:    Size  Location     Type
  2726 ;;		None
  2727 ;; Auto vars:     Size  Location     Type
  2728 ;;  i               2   45[COMRAM] int 
  2729 ;;  sequenciaTec    8   35[COMRAM] unsigned int [4]
  2730 ;;  tecla           2   43[COMRAM] unsigned int 
  2731 ;;  ano1            2   33[COMRAM] unsigned int 
  2732 ;;  d               2   31[COMRAM] unsigned int 
  2733 ;;  c               2   29[COMRAM] unsigned int 
  2734 ;;  b               2   27[COMRAM] unsigned int 
  2735 ;;  a               2   25[COMRAM] unsigned int 
  2736 ;;  j               2    0        unsigned int 
  2737 ;;  i               2    0        unsigned int 
  2738 ;; Return value:  Size  Location     Type
  2739 ;;                  2   19[COMRAM] int 
  2740 ;; Registers used:
  2741 ;;		wreg, fsr2l, fsr2h, status,2, status,0, tblptrl, tblptrh, tblptru, prodl, prodh, cstack
  2742 ;; Tracked objects:
  2743 ;;		On entry : 0/0
  2744 ;;		On exit  : 0/0
  2745 ;;		Unchanged: 0/0
  2746 ;; Data sizes:     COMRAM   BANK0   BANK1   BANK2   BANK3   BANK4   BANK5
  2747 ;;      Params:         2       0       0       0       0       0       0
  2748 ;;      Locals:        22       0       0       0       0       0       0
  2749 ;;      Temps:          4       0       0       0       0       0       0
  2750 ;;      Totals:        28       0       0       0       0       0       0
  2751 ;;Total ram usage:       28 bytes
  2752 ;; Hardware stack levels used:    1
  2753 ;; Hardware stack levels required when called:    2
  2754 ;; This function calls:
  2755 ;;		___wmul
  2756 ;;		_lcd_dat
  2757 ;;		_tc_tecla
  2758 ;; This function is called by:
  2759 ;;		_main
  2760 ;; This function uses a non-reentrant model
  2761 ;;
  2762                           
  2763                           	psect	text1
  2764  006806                     __ptext1:
  2765                           	callstack 0
  2766  006806                     _teclado:
  2767                           	callstack 28
  2768  006806                     
  2769                           ;main.c: 35:     unsigned int sequenciaTeclado[4];;main.c: 36:     unsigned int a, b, c,
      +                           d, ano1;;main.c: 37:     unsigned int i, j;;main.c: 38:     unsigned int tecla;;main.c:
      +                           57:     for(int i = 0; i < 4; i++){
  2770  006806  0E00               	movlw	0
  2771  006808  6E2F               	movwf	(teclado@i_98+1)^0,c
  2772  00680A  0E00               	movlw	0
  2773  00680C  6E2E               	movwf	teclado@i_98^0,c
  2774  00680E                     l2292:
  2775                           
  2776                           ;main.c: 59:         (*(volatile __near unsigned char*)0xF95) = 0x0F;
  2777  00680E  0E0F               	movlw	15
  2778  006810  6E95               	movwf	149,c	;volatile
  2779  006812                     
  2780                           ;main.c: 60:         tecla = tc_tecla(0) + 0x30;
  2781  006812  0E00               	movlw	0
  2782  006814  6E0E               	movwf	(tc_tecla@timeout+1)^0,c
  2783  006816  0E00               	movlw	0
  2784  006818  6E0D               	movwf	tc_tecla@timeout^0,c
  2785  00681A  EC2F  F035         	call	_tc_tecla	;wreg free
  2786  00681E  6E16               	movwf	??_teclado^0,c
  2787  006820  0E30               	movlw	48
  2788  006822  2416               	addwf	??_teclado^0,w,c
  2789  006824  6E2C               	movwf	teclado@tecla^0,c
  2790  006826  6A2D               	clrf	(teclado@tecla+1)^0,c
  2791  006828  0E00               	movlw	0
  2792  00682A  222D               	addwfc	(teclado@tecla+1)^0,f,c
  2793  00682C                     
  2794                           ;main.c: 63:         (*(volatile __near unsigned char*)0xF95) = 0x00;
  2795  00682C  0E00               	movlw	0
  2796  00682E  6E95               	movwf	149,c	;volatile
  2797  006830                     
  2798                           ;main.c: 64:         lcd_dat(tecla);
  2799  006830  502C               	movf	teclado@tecla^0,w,c
  2800  006832  EC2D  F030         	call	_lcd_dat
  2801  006836                     
  2802                           ;main.c: 67:         sequenciaTeclado[i] = tecla - 0x30;
  2803  006836  0ED0               	movlw	208
  2804  006838  6E16               	movwf	??_teclado^0,c
  2805  00683A  0EFF               	movlw	255
  2806  00683C  6E17               	movwf	(??_teclado+1)^0,c
  2807  00683E  C02C  F018         	movff	teclado@tecla,??_teclado+2
  2808  006842  C02D  F019         	movff	teclado@tecla+1,??_teclado+3
  2809  006846  5016               	movf	??_teclado^0,w,c
  2810  006848  2618               	addwf	(??_teclado+2)^0,f,c
  2811  00684A  5017               	movf	(??_teclado+1)^0,w,c
  2812  00684C  2219               	addwfc	(??_teclado+3)^0,f,c
  2813  00684E  90D8               	bcf	status,0,c
  2814  006850  342E               	rlcf	teclado@i_98^0,w,c
  2815  006852  6ED9               	movwf	fsr2l,c
  2816  006854  342F               	rlcf	(teclado@i_98+1)^0,w,c
  2817  006856  6EDA               	movwf	fsr2h,c
  2818  006858  0E24               	movlw	low teclado@sequenciaTeclado
  2819  00685A  26D9               	addwf	fsr2l,f,c
  2820  00685C  0E00               	movlw	high teclado@sequenciaTeclado
  2821  00685E  22DA               	addwfc	fsr2h,f,c
  2822  006860  C018  FFDE         	movff	??_teclado+2,postinc2
  2823  006864  C019  FFDD         	movff	??_teclado+3,postdec2
  2824  006868                     
  2825                           ;main.c: 68:     }
  2826  006868  4A2E               	infsnz	teclado@i_98^0,f,c
  2827  00686A  2A2F               	incf	(teclado@i_98+1)^0,f,c
  2828  00686C  BE2F               	btfsc	(teclado@i_98+1)^0,7,c
  2829  00686E  EF42  F034         	goto	u2001
  2830  006872  502F               	movf	(teclado@i_98+1)^0,w,c
  2831  006874  E109               	bnz	u2000
  2832  006876  0E04               	movlw	4
  2833  006878  5C2E               	subwf	teclado@i_98^0,w,c
  2834  00687A  A0D8               	btfss	status,0,c
  2835  00687C  EF42  F034         	goto	u2001
  2836  006880  EF44  F034         	goto	u2000
  2837  006884                     u2001:
  2838  006884  EF07  F034         	goto	l2292
  2839  006888                     u2000:
  2840  006888                     
  2841                           ;main.c: 70:     a = sequenciaTeclado[0] * 1000;
  2842  006888  C024  F001         	movff	teclado@sequenciaTeclado,___wmul@multiplier
  2843  00688C  C025  F002         	movff	teclado@sequenciaTeclado+1,___wmul@multiplier+1
  2844  006890  0E03               	movlw	3
  2845  006892  6E04               	movwf	(___wmul@multiplicand+1)^0,c
  2846  006894  0EE8               	movlw	232
  2847  006896  6E03               	movwf	___wmul@multiplicand^0,c
  2848  006898  EC1A  F030         	call	___wmul	;wreg free
  2849  00689C  C001  F01A         	movff	?___wmul,teclado@a
  2850  0068A0  C002  F01B         	movff	?___wmul+1,teclado@a+1
  2851                           
  2852                           ;main.c: 71:     b = sequenciaTeclado[1] * 100;
  2853  0068A4  C026  F001         	movff	teclado@sequenciaTeclado+2,___wmul@multiplier
  2854  0068A8  C027  F002         	movff	teclado@sequenciaTeclado+3,___wmul@multiplier+1
  2855  0068AC  0E00               	movlw	0
  2856  0068AE  6E04               	movwf	(___wmul@multiplicand+1)^0,c
  2857  0068B0  0E64               	movlw	100
  2858  0068B2  6E03               	movwf	___wmul@multiplicand^0,c
  2859  0068B4  EC1A  F030         	call	___wmul	;wreg free
  2860  0068B8  C001  F01C         	movff	?___wmul,teclado@b
  2861  0068BC  C002  F01D         	movff	?___wmul+1,teclado@b+1
  2862                           
  2863                           ;main.c: 72:     c = sequenciaTeclado[2] * 10;
  2864  0068C0  C028  F001         	movff	teclado@sequenciaTeclado+4,___wmul@multiplier
  2865  0068C4  C029  F002         	movff	teclado@sequenciaTeclado+5,___wmul@multiplier+1
  2866  0068C8  0E00               	movlw	0
  2867  0068CA  6E04               	movwf	(___wmul@multiplicand+1)^0,c
  2868  0068CC  0E0A               	movlw	10
  2869  0068CE  6E03               	movwf	___wmul@multiplicand^0,c
  2870  0068D0  EC1A  F030         	call	___wmul	;wreg free
  2871  0068D4  C001  F01E         	movff	?___wmul,teclado@c
  2872  0068D8  C002  F01F         	movff	?___wmul+1,teclado@c+1
  2873  0068DC                     
  2874                           ;main.c: 73:     d = sequenciaTeclado[3];
  2875  0068DC  C02A  F020         	movff	teclado@sequenciaTeclado+6,teclado@d
  2876  0068E0  C02B  F021         	movff	teclado@sequenciaTeclado+7,teclado@d+1
  2877  0068E4                     
  2878                           ;main.c: 74:     ano1 = a + b + c + d;
  2879  0068E4  501C               	movf	teclado@b^0,w,c
  2880  0068E6  241A               	addwf	teclado@a^0,w,c
  2881  0068E8  6E16               	movwf	??_teclado^0,c
  2882  0068EA  501D               	movf	(teclado@b+1)^0,w,c
  2883  0068EC  201B               	addwfc	(teclado@a+1)^0,w,c
  2884  0068EE  6E17               	movwf	(??_teclado+1)^0,c
  2885  0068F0  501E               	movf	teclado@c^0,w,c
  2886  0068F2  2616               	addwf	??_teclado^0,f,c
  2887  0068F4  501F               	movf	(teclado@c+1)^0,w,c
  2888  0068F6  2217               	addwfc	(??_teclado+1)^0,f,c
  2889  0068F8  5020               	movf	teclado@d^0,w,c
  2890  0068FA  2416               	addwf	??_teclado^0,w,c
  2891  0068FC  6E22               	movwf	teclado@ano1^0,c
  2892  0068FE  5021               	movf	(teclado@d+1)^0,w,c
  2893  006900  2017               	addwfc	(??_teclado+1)^0,w,c
  2894  006902  6E23               	movwf	(teclado@ano1+1)^0,c
  2895  006904                     
  2896                           ;main.c: 75:     return ano1;
  2897  006904  C022  F014         	movff	teclado@ano1,?_teclado
  2898  006908  C023  F015         	movff	teclado@ano1+1,?_teclado+1
  2899  00690C  0012               	return		;funcret
  2900  00690E                     __end_of_teclado:
  2901                           	callstack 0
  2902                           
  2903 ;; *************** function _tc_tecla *****************
  2904 ;; Defined at:
  2905 ;;		line 14 in file "teclado.c"
  2906 ;; Parameters:    Size  Location     Type
  2907 ;;  timeout         2   12[COMRAM] unsigned int 
  2908 ;; Auto vars:     Size  Location     Type
  2909 ;;  to              2   14[COMRAM] unsigned int 
  2910 ;;  i               1   18[COMRAM] unsigned char 
  2911 ;;  ret             1   17[COMRAM] unsigned char 
  2912 ;;  tmp             1   16[COMRAM] unsigned char 
  2913 ;; Return value:  Size  Location     Type
  2914 ;;                  1    wreg      unsigned char 
  2915 ;; Registers used:
  2916 ;;		wreg, status,2, status,0, tblptrl, tblptrh, tblptru, cstack
  2917 ;; Tracked objects:
  2918 ;;		On entry : 0/0
  2919 ;;		On exit  : 0/0
  2920 ;;		Unchanged: 0/0
  2921 ;; Data sizes:     COMRAM   BANK0   BANK1   BANK2   BANK3   BANK4   BANK5
  2922 ;;      Params:         2       0       0       0       0       0       0
  2923 ;;      Locals:         5       0       0       0       0       0       0
  2924 ;;      Temps:          0       0       0       0       0       0       0
  2925 ;;      Totals:         7       0       0       0       0       0       0
  2926 ;;Total ram usage:        7 bytes
  2927 ;; Hardware stack levels used:    1
  2928 ;; Hardware stack levels required when called:    1
  2929 ;; This function calls:
  2930 ;;		_atraso_ms
  2931 ;; This function is called by:
  2932 ;;		_teclado
  2933 ;; This function uses a non-reentrant model
  2934 ;;
  2935                           
  2936                           	psect	text2
  2937  006A5E                     __ptext2:
  2938                           	callstack 0
  2939  006A5E                     _tc_tecla:
  2940                           	callstack 28
  2941  006A5E                     
  2942                           ;teclado.c: 15:     unsigned int to = 0;
  2943  006A5E  0E00               	movlw	0
  2944  006A60  6E10               	movwf	(tc_tecla@to+1)^0,c
  2945  006A62  0E00               	movlw	0
  2946  006A64  6E0F               	movwf	tc_tecla@to^0,c
  2947                           
  2948                           ;teclado.c: 16:     unsigned char i;;teclado.c: 17:     unsigned char ret = 0;
  2949  006A66  0E00               	movlw	0
  2950  006A68  6E12               	movwf	tc_tecla@ret^0,c
  2951  006A6A                     
  2952                           ;teclado.c: 18:     unsigned char tmp = (*(volatile __near unsigned char*)0xF81);
  2953  006A6A  CF81 F011          	movff	3969,tc_tecla@tmp	;volatile
  2954                           
  2955                           ;teclado.c: 21:     while (((to < timeout) || (!timeout))&&(!ret)) {
  2956  006A6E  EFE0  F035         	goto	l2084
  2957  006A72                     l2032:
  2958                           
  2959                           ;teclado.c: 22:         for (i = 0; i < 3; i++) {
  2960  006A72  0E00               	movlw	0
  2961  006A74  6E13               	movwf	tc_tecla@i^0,c
  2962  006A76                     l2038:
  2963                           
  2964                           ;teclado.c: 23:             (*(volatile __near unsigned char*)0xF81) |= ~linha[i];
  2965  006A76  0E6D               	movlw	low _linha
  2966  006A78  2413               	addwf	tc_tecla@i^0,w,c
  2967  006A7A  6EF6               	movwf	tblptrl,c
  2968  006A7C  6AF7               	clrf	tblptrh,c
  2969  006A7E  0E79               	movlw	high _linha
  2970  006A80  22F7               	addwfc	tblptrh,f,c
  2971  006A82                     	if	0	;There are less than 3 active tblptr bytes
  2972  006A82                     	endif
  2973  006A82  0008               	tblrd		*
  2974  006A84  50F5               	movf	tablat,w,c
  2975  006A86  0AFF               	xorlw	255
  2976  006A88  1281               	iorwf	129,f,c	;volatile
  2977  006A8A                     
  2978                           ;teclado.c: 24:             if (!(((*(volatile __near unsigned char*)0xF83)) & (1<<3))) 
      +                          {
  2979  006A8A  B683               	btfsc	131,3,c	;volatile
  2980  006A8C  EF4A  F035         	goto	u1281
  2981  006A90  EF4C  F035         	goto	u1280
  2982  006A94                     u1281:
  2983  006A94  EF64  F035         	goto	l243
  2984  006A98                     u1280:
  2985  006A98                     
  2986                           ;teclado.c: 25:                 atraso_ms(atraso);
  2987  006A98  0E00               	movlw	0
  2988  006A9A  6E08               	movwf	(atraso_ms@t+1)^0,c
  2989  006A9C  0E0F               	movlw	15
  2990  006A9E  6E07               	movwf	atraso_ms@t^0,c
  2991  006AA0  EC40  F031         	call	_atraso_ms	;wreg free
  2992  006AA4                     
  2993                           ;teclado.c: 26:                 if (!(((*(volatile __near unsigned char*)0xF83)) & (1<<3
      +                          ))) {
  2994  006AA4  B683               	btfsc	131,3,c	;volatile
  2995  006AA6  EF57  F035         	goto	u1291
  2996  006AAA  EF59  F035         	goto	u1290
  2997  006AAE                     u1291:
  2998  006AAE  EF64  F035         	goto	l243
  2999  006AB2                     u1290:
  3000  006AB2                     l245:
  3001  006AB2  A683               	btfss	131,3,c	;volatile
  3002  006AB4  EF5E  F035         	goto	u1301
  3003  006AB8  EF60  F035         	goto	u1300
  3004  006ABC                     u1301:
  3005  006ABC  EF59  F035         	goto	l245
  3006  006AC0                     u1300:
  3007  006AC0                     
  3008                           ;teclado.c: 28:                     ret = 1 + i;
  3009  006AC0  2813               	incf	tc_tecla@i^0,w,c
  3010  006AC2  6E12               	movwf	tc_tecla@ret^0,c
  3011                           
  3012                           ;teclado.c: 29:                     break;
  3013  006AC4  EFD6  F035         	goto	l2080
  3014  006AC8                     l243:
  3015                           
  3016                           ;teclado.c: 32:             if (!(((*(volatile __near unsigned char*)0xF83)) & (1<<2))) 
      +                          {
  3017  006AC8  B483               	btfsc	131,2,c	;volatile
  3018  006ACA  EF69  F035         	goto	u1311
  3019  006ACE  EF6B  F035         	goto	u1310
  3020  006AD2                     u1311:
  3021  006AD2  EF84  F035         	goto	l248
  3022  006AD6                     u1310:
  3023  006AD6                     
  3024                           ;teclado.c: 33:                 atraso_ms(atraso);
  3025  006AD6  0E00               	movlw	0
  3026  006AD8  6E08               	movwf	(atraso_ms@t+1)^0,c
  3027  006ADA  0E0F               	movlw	15
  3028  006ADC  6E07               	movwf	atraso_ms@t^0,c
  3029  006ADE  EC40  F031         	call	_atraso_ms	;wreg free
  3030  006AE2                     
  3031                           ;teclado.c: 34:                 if (!(((*(volatile __near unsigned char*)0xF83)) & (1<<2
      +                          ))) {
  3032  006AE2  B483               	btfsc	131,2,c	;volatile
  3033  006AE4  EF76  F035         	goto	u1321
  3034  006AE8  EF78  F035         	goto	u1320
  3035  006AEC                     u1321:
  3036  006AEC  EF84  F035         	goto	l248
  3037  006AF0                     u1320:
  3038  006AF0                     l250:
  3039  006AF0  A483               	btfss	131,2,c	;volatile
  3040  006AF2  EF7D  F035         	goto	u1331
  3041  006AF6  EF7F  F035         	goto	u1330
  3042  006AFA                     u1331:
  3043  006AFA  EF78  F035         	goto	l250
  3044  006AFE                     u1330:
  3045  006AFE                     
  3046                           ;teclado.c: 36:                     ret = 4 + i;
  3047  006AFE  5013               	movf	tc_tecla@i^0,w,c
  3048  006B00  0F04               	addlw	4
  3049  006B02  6E12               	movwf	tc_tecla@ret^0,c
  3050                           
  3051                           ;teclado.c: 37:                     break;
  3052  006B04  EFD6  F035         	goto	l2080
  3053  006B08                     l248:
  3054                           
  3055                           ;teclado.c: 40:             if (!(((*(volatile __near unsigned char*)0xF83)) & (1<<1))) 
      +                          {
  3056  006B08  B283               	btfsc	131,1,c	;volatile
  3057  006B0A  EF89  F035         	goto	u1341
  3058  006B0E  EF8B  F035         	goto	u1340
  3059  006B12                     u1341:
  3060  006B12  EFA4  F035         	goto	l253
  3061  006B16                     u1340:
  3062  006B16                     
  3063                           ;teclado.c: 41:                 atraso_ms(atraso);
  3064  006B16  0E00               	movlw	0
  3065  006B18  6E08               	movwf	(atraso_ms@t+1)^0,c
  3066  006B1A  0E0F               	movlw	15
  3067  006B1C  6E07               	movwf	atraso_ms@t^0,c
  3068  006B1E  EC40  F031         	call	_atraso_ms	;wreg free
  3069  006B22                     
  3070                           ;teclado.c: 42:                 if (!(((*(volatile __near unsigned char*)0xF83)) & (1<<1
      +                          ))) {
  3071  006B22  B283               	btfsc	131,1,c	;volatile
  3072  006B24  EF96  F035         	goto	u1351
  3073  006B28  EF98  F035         	goto	u1350
  3074  006B2C                     u1351:
  3075  006B2C  EFA4  F035         	goto	l253
  3076  006B30                     u1350:
  3077  006B30                     l255:
  3078  006B30  A283               	btfss	131,1,c	;volatile
  3079  006B32  EF9D  F035         	goto	u1361
  3080  006B36  EF9F  F035         	goto	u1360
  3081  006B3A                     u1361:
  3082  006B3A  EF98  F035         	goto	l255
  3083  006B3E                     u1360:
  3084  006B3E                     
  3085                           ;teclado.c: 44:                     ret = 7 + i;
  3086  006B3E  5013               	movf	tc_tecla@i^0,w,c
  3087  006B40  0F07               	addlw	7
  3088  006B42  6E12               	movwf	tc_tecla@ret^0,c
  3089                           
  3090                           ;teclado.c: 45:                     break;
  3091  006B44  EFD6  F035         	goto	l2080
  3092  006B48                     l253:
  3093                           
  3094                           ;teclado.c: 48:             if (!(((*(volatile __near unsigned char*)0xF83)) & (1<<0))) 
      +                          {
  3095  006B48  B083               	btfsc	131,0,c	;volatile
  3096  006B4A  EFA9  F035         	goto	u1371
  3097  006B4E  EFAB  F035         	goto	u1370
  3098  006B52                     u1371:
  3099  006B52  EFC4  F035         	goto	l2074
  3100  006B56                     u1370:
  3101  006B56                     
  3102                           ;teclado.c: 49:                 atraso_ms(atraso);
  3103  006B56  0E00               	movlw	0
  3104  006B58  6E08               	movwf	(atraso_ms@t+1)^0,c
  3105  006B5A  0E0F               	movlw	15
  3106  006B5C  6E07               	movwf	atraso_ms@t^0,c
  3107  006B5E  EC40  F031         	call	_atraso_ms	;wreg free
  3108  006B62                     
  3109                           ;teclado.c: 50:                 if (!(((*(volatile __near unsigned char*)0xF83)) & (1<<0
      +                          ))) {
  3110  006B62  B083               	btfsc	131,0,c	;volatile
  3111  006B64  EFB6  F035         	goto	u1381
  3112  006B68  EFB8  F035         	goto	u1380
  3113  006B6C                     u1381:
  3114  006B6C  EFC4  F035         	goto	l2074
  3115  006B70                     u1380:
  3116  006B70                     l260:
  3117  006B70  A083               	btfss	131,0,c	;volatile
  3118  006B72  EFBD  F035         	goto	u1391
  3119  006B76  EFBF  F035         	goto	u1390
  3120  006B7A                     u1391:
  3121  006B7A  EFB8  F035         	goto	l260
  3122  006B7E                     u1390:
  3123  006B7E                     
  3124                           ;teclado.c: 52:                     ret = 10 + i;
  3125  006B7E  5013               	movf	tc_tecla@i^0,w,c
  3126  006B80  0F0A               	addlw	10
  3127  006B82  6E12               	movwf	tc_tecla@ret^0,c
  3128                           
  3129                           ;teclado.c: 53:                     break;
  3130  006B84  EFD6  F035         	goto	l2080
  3131  006B88                     l2074:
  3132                           
  3133                           ;teclado.c: 56:             (*(volatile __near unsigned char*)0xF81) &= linha[i];
  3134  006B88  0E6D               	movlw	low _linha
  3135  006B8A  2413               	addwf	tc_tecla@i^0,w,c
  3136  006B8C  6EF6               	movwf	tblptrl,c
  3137  006B8E  6AF7               	clrf	tblptrh,c
  3138  006B90  0E79               	movlw	high _linha
  3139  006B92  22F7               	addwfc	tblptrh,f,c
  3140  006B94                     	if	0	;There are less than 3 active tblptr bytes
  3141  006B94                     	endif
  3142  006B94  0008               	tblrd		*
  3143  006B96  50F5               	movf	tablat,w,c
  3144  006B98  1681               	andwf	129,f,c	;volatile
  3145  006B9A                     
  3146                           ;teclado.c: 57:         };
  3147  006B9A  2A13               	incf	tc_tecla@i^0,f,c
  3148  006B9C  0E02               	movlw	2
  3149  006B9E  6413               	cpfsgt	tc_tecla@i^0,c
  3150  006BA0  EFD4  F035         	goto	u1401
  3151  006BA4  EFD6  F035         	goto	u1400
  3152  006BA8                     u1401:
  3153  006BA8  EF3B  F035         	goto	l2038
  3154  006BAC                     u1400:
  3155  006BAC                     l2080:
  3156                           
  3157                           ;teclado.c: 58:         atraso_ms(atraso_min);
  3158  006BAC  0E00               	movlw	0
  3159  006BAE  6E08               	movwf	(atraso_ms@t+1)^0,c
  3160  006BB0  0E05               	movlw	5
  3161  006BB2  6E07               	movwf	atraso_ms@t^0,c
  3162  006BB4  EC40  F031         	call	_atraso_ms	;wreg free
  3163  006BB8                     
  3164                           ;teclado.c: 59:         to += 5;
  3165  006BB8  0E05               	movlw	5
  3166  006BBA  260F               	addwf	tc_tecla@to^0,f,c
  3167  006BBC  0E00               	movlw	0
  3168  006BBE  2210               	addwfc	(tc_tecla@to+1)^0,f,c
  3169  006BC0                     l2084:
  3170                           
  3171                           ;teclado.c: 21:     while (((to < timeout) || (!timeout))&&(!ret)) {
  3172  006BC0  500D               	movf	tc_tecla@timeout^0,w,c
  3173  006BC2  5C0F               	subwf	tc_tecla@to^0,w,c
  3174  006BC4  500E               	movf	(tc_tecla@timeout+1)^0,w,c
  3175  006BC6  5810               	subwfb	(tc_tecla@to+1)^0,w,c
  3176  006BC8  A0D8               	btfss	status,0,c
  3177  006BCA  EFE9  F035         	goto	u1411
  3178  006BCE  EFEB  F035         	goto	u1410
  3179  006BD2                     u1411:
  3180  006BD2  EFF4  F035         	goto	l2088
  3181  006BD6                     u1410:
  3182  006BD6  500D               	movf	tc_tecla@timeout^0,w,c
  3183  006BD8  100E               	iorwf	(tc_tecla@timeout+1)^0,w,c
  3184  006BDA  A4D8               	btfss	status,2,c
  3185  006BDC  EFF2  F035         	goto	u1421
  3186  006BE0  EFF4  F035         	goto	u1420
  3187  006BE4                     u1421:
  3188  006BE4  EFFC  F035         	goto	l2090
  3189  006BE8                     u1420:
  3190  006BE8                     l2088:
  3191  006BE8  5012               	movf	tc_tecla@ret^0,w,c
  3192  006BEA  B4D8               	btfsc	status,2,c
  3193  006BEC  EFFA  F035         	goto	u1431
  3194  006BF0  EFFC  F035         	goto	u1430
  3195  006BF4                     u1431:
  3196  006BF4  EF39  F035         	goto	l2032
  3197  006BF8                     u1430:
  3198  006BF8                     l2090:
  3199                           
  3200                           ;teclado.c: 62:     if (!ret)ret = 255;
  3201  006BF8  5012               	movf	tc_tecla@ret^0,w,c
  3202  006BFA  A4D8               	btfss	status,2,c
  3203  006BFC  EF02  F036         	goto	u1441
  3204  006C00  EF04  F036         	goto	u1440
  3205  006C04                     u1441:
  3206  006C04  EF05  F036         	goto	l2094
  3207  006C08                     u1440:
  3208  006C08  6812               	setf	tc_tecla@ret^0,c
  3209  006C0A                     l2094:
  3210                           
  3211                           ;teclado.c: 63:     if (ret == 11)ret = 0;
  3212  006C0A  0E0B               	movlw	11
  3213  006C0C  1812               	xorwf	tc_tecla@ret^0,w,c
  3214  006C0E  A4D8               	btfss	status,2,c
  3215  006C10  EF0C  F036         	goto	u1451
  3216  006C14  EF0E  F036         	goto	u1450
  3217  006C18                     u1451:
  3218  006C18  EF10  F036         	goto	l2098
  3219  006C1C                     u1450:
  3220  006C1C  0E00               	movlw	0
  3221  006C1E  6E12               	movwf	tc_tecla@ret^0,c
  3222  006C20                     l2098:
  3223                           
  3224                           ;teclado.c: 64:     (*(volatile __near unsigned char*)0xF81) = tmp;
  3225  006C20  C011  FF81         	movff	tc_tecla@tmp,3969	;volatile
  3226                           
  3227                           ;teclado.c: 65:     return ret;
  3228  006C24  5012               	movf	tc_tecla@ret^0,w,c
  3229  006C26  0012               	return		;funcret
  3230  006C28                     __end_of_tc_tecla:
  3231                           	callstack 0
  3232                           
  3233 ;; *************** function _ssdUpdate *****************
  3234 ;; Defined at:
  3235 ;;		line 54 in file "ssd.c"
  3236 ;; Parameters:    Size  Location     Type
  3237 ;;		None
  3238 ;; Auto vars:     Size  Location     Type
  3239 ;;		None
  3240 ;; Return value:  Size  Location     Type
  3241 ;;                  1    wreg      void 
  3242 ;; Registers used:
  3243 ;;		wreg, status,2, status,0, tblptrl, tblptrh, tblptru, cstack
  3244 ;; Tracked objects:
  3245 ;;		On entry : 0/0
  3246 ;;		On exit  : 0/0
  3247 ;;		Unchanged: 0/0
  3248 ;; Data sizes:     COMRAM   BANK0   BANK1   BANK2   BANK3   BANK4   BANK5
  3249 ;;      Params:         0       0       0       0       0       0       0
  3250 ;;      Locals:         0       0       0       0       0       0       0
  3251 ;;      Temps:          2       0       0       0       0       0       0
  3252 ;;      Totals:         2       0       0       0       0       0       0
  3253 ;;Total ram usage:        2 bytes
  3254 ;; Hardware stack levels used:    1
  3255 ;; Hardware stack levels required when called:    1
  3256 ;; This function calls:
  3257 ;;		_digitalWrite
  3258 ;; This function is called by:
  3259 ;;		_main
  3260 ;; This function uses a non-reentrant model
  3261 ;;
  3262                           
  3263                           	psect	text3
  3264  00690E                     __ptext3:
  3265                           	callstack 0
  3266  00690E                     _ssdUpdate:
  3267                           	callstack 29
  3268  00690E                     
  3269                           ;ssd.c: 58:     TRISD= 0x00;
  3270  00690E  0E00               	movlw	0
  3271  006910  6E95               	movwf	149,c	;volatile
  3272  006912                     
  3273                           ;ssd.c: 60:     digitalWrite(PIN_A2,0);
  3274  006912  0E00               	movlw	0
  3275  006914  6E02               	movwf	(digitalWrite@pin+1)^0,c
  3276  006916  0E02               	movlw	2
  3277  006918  6E01               	movwf	digitalWrite@pin^0,c
  3278  00691A  0E00               	movlw	0
  3279  00691C  6E04               	movwf	(digitalWrite@value+1)^0,c
  3280  00691E  0E00               	movlw	0
  3281  006920  6E03               	movwf	digitalWrite@value^0,c
  3282  006922  EC5B  F038         	call	_digitalWrite	;wreg free
  3283  006926                     
  3284                           ;ssd.c: 61:     digitalWrite(PIN_A3,0);
  3285  006926  0E00               	movlw	0
  3286  006928  6E02               	movwf	(digitalWrite@pin+1)^0,c
  3287  00692A  0E03               	movlw	3
  3288  00692C  6E01               	movwf	digitalWrite@pin^0,c
  3289  00692E  0E00               	movlw	0
  3290  006930  6E04               	movwf	(digitalWrite@value+1)^0,c
  3291  006932  0E00               	movlw	0
  3292  006934  6E03               	movwf	digitalWrite@value^0,c
  3293  006936  EC5B  F038         	call	_digitalWrite	;wreg free
  3294  00693A                     
  3295                           ;ssd.c: 62:     digitalWrite(PIN_A4,0);
  3296  00693A  0E00               	movlw	0
  3297  00693C  6E02               	movwf	(digitalWrite@pin+1)^0,c
  3298  00693E  0E04               	movlw	4
  3299  006940  6E01               	movwf	digitalWrite@pin^0,c
  3300  006942  0E00               	movlw	0
  3301  006944  6E04               	movwf	(digitalWrite@value+1)^0,c
  3302  006946  0E00               	movlw	0
  3303  006948  6E03               	movwf	digitalWrite@value^0,c
  3304  00694A  EC5B  F038         	call	_digitalWrite	;wreg free
  3305  00694E                     
  3306                           ;ssd.c: 63:     digitalWrite(PIN_A5,0);
  3307  00694E  0E00               	movlw	0
  3308  006950  6E02               	movwf	(digitalWrite@pin+1)^0,c
  3309  006952  0E05               	movlw	5
  3310  006954  6E01               	movwf	digitalWrite@pin^0,c
  3311  006956  0E00               	movlw	0
  3312  006958  6E04               	movwf	(digitalWrite@value+1)^0,c
  3313  00695A  0E00               	movlw	0
  3314  00695C  6E03               	movwf	digitalWrite@value^0,c
  3315  00695E  EC5B  F038         	call	_digitalWrite	;wreg free
  3316                           
  3317                           ;ssd.c: 66:     PORTD = 0x00;
  3318  006962  0E00               	movlw	0
  3319  006964  6E83               	movwf	131,c	;volatile
  3320                           
  3321                           ;ssd.c: 69:     switch (display)
  3322  006966  EF11  F035         	goto	l2564
  3323  00696A                     l2536:
  3324                           
  3325                           ;ssd.c: 72:             PORTD = valor[v0];
  3326  00696A  0E5D               	movlw	low _valor@ssd$F300
  3327  00696C  2476               	addwf	_v0^0,w,c
  3328  00696E  6EF6               	movwf	tblptrl,c
  3329  006970  6AF7               	clrf	tblptrh,c
  3330  006972  0E79               	movlw	high _valor@ssd$F300
  3331  006974  22F7               	addwfc	tblptrh,f,c
  3332  006976                     	if	0	;There are less than 3 active tblptr bytes
  3333  006976                     	endif
  3334  006976  0008               	tblrd		*
  3335  006978  CFF5 FF83          	movff	tablat,3971	;volatile
  3336  00697C                     
  3337                           ;ssd.c: 73:             digitalWrite(PIN_A2,1);
  3338  00697C  0E00               	movlw	0
  3339  00697E  6E02               	movwf	(digitalWrite@pin+1)^0,c
  3340  006980  0E02               	movlw	2
  3341  006982  6E01               	movwf	digitalWrite@pin^0,c
  3342  006984  0E00               	movlw	0
  3343  006986  6E04               	movwf	(digitalWrite@value+1)^0,c
  3344  006988  0E01               	movlw	1
  3345  00698A  6E03               	movwf	digitalWrite@value^0,c
  3346  00698C  EC5B  F038         	call	_digitalWrite	;wreg free
  3347  006990                     
  3348                           ;ssd.c: 74:             display = 1;
  3349  006990  0E01               	movlw	1
  3350  006992  6E77               	movwf	_display^0,c
  3351                           
  3352                           ;ssd.c: 75:             break;
  3353  006994  EF2E  F035         	goto	l355
  3354  006998                     l2542:
  3355                           
  3356                           ;ssd.c: 78:             PORTD = valor[v1];
  3357  006998  0E5D               	movlw	low _valor@ssd$F300
  3358  00699A  2475               	addwf	_v1^0,w,c
  3359  00699C  6EF6               	movwf	tblptrl,c
  3360  00699E  6AF7               	clrf	tblptrh,c
  3361  0069A0  0E79               	movlw	high _valor@ssd$F300
  3362  0069A2  22F7               	addwfc	tblptrh,f,c
  3363  0069A4                     	if	0	;There are less than 3 active tblptr bytes
  3364  0069A4                     	endif
  3365  0069A4  0008               	tblrd		*
  3366  0069A6  CFF5 FF83          	movff	tablat,3971	;volatile
  3367  0069AA                     
  3368                           ;ssd.c: 79:             digitalWrite(PIN_A3,1);
  3369  0069AA  0E00               	movlw	0
  3370  0069AC  6E02               	movwf	(digitalWrite@pin+1)^0,c
  3371  0069AE  0E03               	movlw	3
  3372  0069B0  6E01               	movwf	digitalWrite@pin^0,c
  3373  0069B2  0E00               	movlw	0
  3374  0069B4  6E04               	movwf	(digitalWrite@value+1)^0,c
  3375  0069B6  0E01               	movlw	1
  3376  0069B8  6E03               	movwf	digitalWrite@value^0,c
  3377  0069BA  EC5B  F038         	call	_digitalWrite	;wreg free
  3378  0069BE                     
  3379                           ;ssd.c: 80:             display = 2;
  3380  0069BE  0E02               	movlw	2
  3381  0069C0  6E77               	movwf	_display^0,c
  3382                           
  3383                           ;ssd.c: 81:             break;
  3384  0069C2  EF2E  F035         	goto	l355
  3385  0069C6                     l2548:
  3386                           
  3387                           ;ssd.c: 84:             PORTD = valor[v2];
  3388  0069C6  0E5D               	movlw	low _valor@ssd$F300
  3389  0069C8  2474               	addwf	_v2^0,w,c
  3390  0069CA  6EF6               	movwf	tblptrl,c
  3391  0069CC  6AF7               	clrf	tblptrh,c
  3392  0069CE  0E79               	movlw	high _valor@ssd$F300
  3393  0069D0  22F7               	addwfc	tblptrh,f,c
  3394  0069D2                     	if	0	;There are less than 3 active tblptr bytes
  3395  0069D2                     	endif
  3396  0069D2  0008               	tblrd		*
  3397  0069D4  CFF5 FF83          	movff	tablat,3971	;volatile
  3398  0069D8                     
  3399                           ;ssd.c: 85:             digitalWrite(PIN_A4,1);
  3400  0069D8  0E00               	movlw	0
  3401  0069DA  6E02               	movwf	(digitalWrite@pin+1)^0,c
  3402  0069DC  0E04               	movlw	4
  3403  0069DE  6E01               	movwf	digitalWrite@pin^0,c
  3404  0069E0  0E00               	movlw	0
  3405  0069E2  6E04               	movwf	(digitalWrite@value+1)^0,c
  3406  0069E4  0E01               	movlw	1
  3407  0069E6  6E03               	movwf	digitalWrite@value^0,c
  3408  0069E8  EC5B  F038         	call	_digitalWrite	;wreg free
  3409  0069EC                     
  3410                           ;ssd.c: 86:             display = 3;
  3411  0069EC  0E03               	movlw	3
  3412  0069EE  6E77               	movwf	_display^0,c
  3413                           
  3414                           ;ssd.c: 87:             break;
  3415  0069F0  EF2E  F035         	goto	l355
  3416  0069F4                     l2554:
  3417                           
  3418                           ;ssd.c: 90:             PORTD = valor[v3];
  3419  0069F4  0E5D               	movlw	low _valor@ssd$F300
  3420  0069F6  2473               	addwf	_v3^0,w,c
  3421  0069F8  6EF6               	movwf	tblptrl,c
  3422  0069FA  6AF7               	clrf	tblptrh,c
  3423  0069FC  0E79               	movlw	high _valor@ssd$F300
  3424  0069FE  22F7               	addwfc	tblptrh,f,c
  3425  006A00                     	if	0	;There are less than 3 active tblptr bytes
  3426  006A00                     	endif
  3427  006A00  0008               	tblrd		*
  3428  006A02  CFF5 FF83          	movff	tablat,3971	;volatile
  3429  006A06                     
  3430                           ;ssd.c: 91:             digitalWrite(PIN_A5,1);
  3431  006A06  0E00               	movlw	0
  3432  006A08  6E02               	movwf	(digitalWrite@pin+1)^0,c
  3433  006A0A  0E05               	movlw	5
  3434  006A0C  6E01               	movwf	digitalWrite@pin^0,c
  3435  006A0E  0E00               	movlw	0
  3436  006A10  6E04               	movwf	(digitalWrite@value+1)^0,c
  3437  006A12  0E01               	movlw	1
  3438  006A14  6E03               	movwf	digitalWrite@value^0,c
  3439  006A16  EC5B  F038         	call	_digitalWrite	;wreg free
  3440  006A1A                     l2558:
  3441                           
  3442                           ;ssd.c: 92:             display = 0;
  3443  006A1A  0E00               	movlw	0
  3444  006A1C  6E77               	movwf	_display^0,c
  3445                           
  3446                           ;ssd.c: 93:             break;
  3447  006A1E  EF2E  F035         	goto	l355
  3448  006A22                     l2564:
  3449  006A22  5077               	movf	_display^0,w,c
  3450  006A24  6E07               	movwf	??_ssdUpdate^0,c
  3451  006A26  6A08               	clrf	(??_ssdUpdate+1)^0,c
  3452                           
  3453                           ; Switch on 2 bytes has been partitioned into a top level switch of size 1, and 1 sub-sw
      +                          itches
  3454                           ; Switch size 1, requested type "simple"
  3455                           ; Number of cases is 1, Range of values is 0 to 0
  3456                           ; switch strategies available:
  3457                           ; Name         Instructions Cycles
  3458                           ; simple_byte            4     3 (average)
  3459                           ;	Chosen strategy is simple_byte
  3460  006A28  5008               	movf	(??_ssdUpdate+1)^0,w,c
  3461  006A2A  0A00               	xorlw	0	; case 0
  3462  006A2C  B4D8               	btfsc	status,2,c
  3463  006A2E  EF1B  F035         	goto	l2814
  3464  006A32  EF0D  F035         	goto	l2558
  3465  006A36                     l2814:
  3466                           
  3467                           ; Switch size 1, requested type "simple"
  3468                           ; Number of cases is 4, Range of values is 0 to 3
  3469                           ; switch strategies available:
  3470                           ; Name         Instructions Cycles
  3471                           ; simple_byte           13     7 (average)
  3472                           ;	Chosen strategy is simple_byte
  3473  006A36  5007               	movf	??_ssdUpdate^0,w,c
  3474  006A38  0A00               	xorlw	0	; case 0
  3475  006A3A  B4D8               	btfsc	status,2,c
  3476  006A3C  EFB5  F034         	goto	l2536
  3477  006A40  0A01               	xorlw	1	; case 1
  3478  006A42  B4D8               	btfsc	status,2,c
  3479  006A44  EFCC  F034         	goto	l2542
  3480  006A48  0A03               	xorlw	3	; case 2
  3481  006A4A  B4D8               	btfsc	status,2,c
  3482  006A4C  EFE3  F034         	goto	l2548
  3483  006A50  0A01               	xorlw	1	; case 3
  3484  006A52  B4D8               	btfsc	status,2,c
  3485  006A54  EFFA  F034         	goto	l2554
  3486  006A58  EF0D  F035         	goto	l2558
  3487  006A5C                     l355:
  3488  006A5C  0012               	return		;funcret
  3489  006A5E                     __end_of_ssdUpdate:
  3490                           	callstack 0
  3491                           
  3492 ;; *************** function _digitalWrite *****************
  3493 ;; Defined at:
  3494 ;;		line 14 in file "io.c"
  3495 ;; Parameters:    Size  Location     Type
  3496 ;;  pin             2    0[COMRAM] int 
  3497 ;;  value           2    2[COMRAM] int 
  3498 ;; Auto vars:     Size  Location     Type
  3499 ;;		None
  3500 ;; Return value:  Size  Location     Type
  3501 ;;                  1    wreg      void 
  3502 ;; Registers used:
  3503 ;;		wreg, status,2, status,0
  3504 ;; Tracked objects:
  3505 ;;		On entry : 0/0
  3506 ;;		On exit  : 0/0
  3507 ;;		Unchanged: 0/0
  3508 ;; Data sizes:     COMRAM   BANK0   BANK1   BANK2   BANK3   BANK4   BANK5
  3509 ;;      Params:         4       0       0       0       0       0       0
  3510 ;;      Locals:         0       0       0       0       0       0       0
  3511 ;;      Temps:          2       0       0       0       0       0       0
  3512 ;;      Totals:         6       0       0       0       0       0       0
  3513 ;;Total ram usage:        6 bytes
  3514 ;; Hardware stack levels used:    1
  3515 ;; This function calls:
  3516 ;;		Nothing
  3517 ;; This function is called by:
  3518 ;;		_ssdUpdate
  3519 ;; This function uses a non-reentrant model
  3520 ;;
  3521                           
  3522                           	psect	text4
  3523  0070B6                     __ptext4:
  3524                           	callstack 0
  3525  0070B6                     _digitalWrite:
  3526                           	callstack 29
  3527  0070B6                     
  3528                           ;io.c: 16:     if(pin <8){
  3529  0070B6  BE02               	btfsc	(digitalWrite@pin+1)^0,7,c
  3530  0070B8  EF69  F038         	goto	u1570
  3531  0070BC  5002               	movf	(digitalWrite@pin+1)^0,w,c
  3532  0070BE  E107               	bnz	u1571
  3533  0070C0  0E08               	movlw	8
  3534  0070C2  5C01               	subwf	digitalWrite@pin^0,w,c
  3535  0070C4  B0D8               	btfsc	status,0,c
  3536  0070C6  EF67  F038         	goto	u1571
  3537  0070CA  EF69  F038         	goto	u1570
  3538  0070CE                     u1571:
  3539  0070CE  EF93  F038         	goto	l2186
  3540  0070D2                     u1570:
  3541  0070D2                     
  3542                           ;io.c: 17:         if (value){ ((PORTA) |= (1<<(pin)));}
  3543  0070D2  5003               	movf	digitalWrite@value^0,w,c
  3544  0070D4  1004               	iorwf	(digitalWrite@value+1)^0,w,c
  3545  0070D6  B4D8               	btfsc	status,2,c
  3546  0070D8  EF70  F038         	goto	u1581
  3547  0070DC  EF72  F038         	goto	u1580
  3548  0070E0                     u1581:
  3549  0070E0  EF82  F038         	goto	l2184
  3550  0070E4                     u1580:
  3551  0070E4  C001  F005         	movff	digitalWrite@pin,??_digitalWrite
  3552  0070E8  0E01               	movlw	1
  3553  0070EA  6E06               	movwf	(??_digitalWrite+1)^0,c
  3554  0070EC  2A05               	incf	??_digitalWrite^0,f,c
  3555  0070EE  EF7B  F038         	goto	u1594
  3556  0070F2                     u1595:
  3557  0070F2  90D8               	bcf	status,0,c
  3558  0070F4  3606               	rlcf	(??_digitalWrite+1)^0,f,c
  3559  0070F6                     u1594:
  3560  0070F6  2E05               	decfsz	??_digitalWrite^0,f,c
  3561  0070F8  EF79  F038         	goto	u1595
  3562  0070FC  5006               	movf	(??_digitalWrite+1)^0,w,c
  3563  0070FE  1280               	iorwf	128,f,c	;volatile
  3564  007100  EF81  F039         	goto	l174
  3565  007104                     l2184:
  3566  007104  C001  F005         	movff	digitalWrite@pin,??_digitalWrite
  3567  007108  0E01               	movlw	1
  3568  00710A  6E06               	movwf	(??_digitalWrite+1)^0,c
  3569  00710C  2A05               	incf	??_digitalWrite^0,f,c
  3570  00710E  EF8B  F038         	goto	u1604
  3571  007112                     u1605:
  3572  007112  90D8               	bcf	status,0,c
  3573  007114  3606               	rlcf	(??_digitalWrite+1)^0,f,c
  3574  007116                     u1604:
  3575  007116  2E05               	decfsz	??_digitalWrite^0,f,c
  3576  007118  EF89  F038         	goto	u1605
  3577  00711C  5006               	movf	(??_digitalWrite+1)^0,w,c
  3578  00711E  0AFF               	xorlw	255
  3579  007120  1680               	andwf	128,f,c	;volatile
  3580  007122  EF81  F039         	goto	l174
  3581  007126                     l2186:
  3582  007126  BE02               	btfsc	(digitalWrite@pin+1)^0,7,c
  3583  007128  EFA1  F038         	goto	u1610
  3584  00712C  5002               	movf	(digitalWrite@pin+1)^0,w,c
  3585  00712E  E107               	bnz	u1611
  3586  007130  0E10               	movlw	16
  3587  007132  5C01               	subwf	digitalWrite@pin^0,w,c
  3588  007134  B0D8               	btfsc	status,0,c
  3589  007136  EF9F  F038         	goto	u1611
  3590  00713A  EFA1  F038         	goto	u1610
  3591  00713E                     u1611:
  3592  00713E  EFCF  F038         	goto	l2194
  3593  007142                     u1610:
  3594  007142                     
  3595                           ;io.c: 20:         pin -=8;
  3596  007142  0EF8               	movlw	248
  3597  007144  2601               	addwf	digitalWrite@pin^0,f,c
  3598  007146  0EFF               	movlw	255
  3599  007148  2202               	addwfc	(digitalWrite@pin+1)^0,f,c
  3600                           
  3601                           ;io.c: 21:         if (value){ ((PORTB) |= (1<<(pin)));}
  3602  00714A  5003               	movf	digitalWrite@value^0,w,c
  3603  00714C  1004               	iorwf	(digitalWrite@value+1)^0,w,c
  3604  00714E  B4D8               	btfsc	status,2,c
  3605  007150  EFAC  F038         	goto	u1621
  3606  007154  EFAE  F038         	goto	u1620
  3607  007158                     u1621:
  3608  007158  EFBE  F038         	goto	l2192
  3609  00715C                     u1620:
  3610  00715C  C001  F005         	movff	digitalWrite@pin,??_digitalWrite
  3611  007160  0E01               	movlw	1
  3612  007162  6E06               	movwf	(??_digitalWrite+1)^0,c
  3613  007164  2A05               	incf	??_digitalWrite^0,f,c
  3614  007166  EFB7  F038         	goto	u1634
  3615  00716A                     u1635:
  3616  00716A  90D8               	bcf	status,0,c
  3617  00716C  3606               	rlcf	(??_digitalWrite+1)^0,f,c
  3618  00716E                     u1634:
  3619  00716E  2E05               	decfsz	??_digitalWrite^0,f,c
  3620  007170  EFB5  F038         	goto	u1635
  3621  007174  5006               	movf	(??_digitalWrite+1)^0,w,c
  3622  007176  1281               	iorwf	129,f,c	;volatile
  3623  007178  EF81  F039         	goto	l174
  3624  00717C                     l2192:
  3625  00717C  C001  F005         	movff	digitalWrite@pin,??_digitalWrite
  3626  007180  0E01               	movlw	1
  3627  007182  6E06               	movwf	(??_digitalWrite+1)^0,c
  3628  007184  2A05               	incf	??_digitalWrite^0,f,c
  3629  007186  EFC7  F038         	goto	u1644
  3630  00718A                     u1645:
  3631  00718A  90D8               	bcf	status,0,c
  3632  00718C  3606               	rlcf	(??_digitalWrite+1)^0,f,c
  3633  00718E                     u1644:
  3634  00718E  2E05               	decfsz	??_digitalWrite^0,f,c
  3635  007190  EFC5  F038         	goto	u1645
  3636  007194  5006               	movf	(??_digitalWrite+1)^0,w,c
  3637  007196  0AFF               	xorlw	255
  3638  007198  1681               	andwf	129,f,c	;volatile
  3639  00719A  EF81  F039         	goto	l174
  3640  00719E                     l2194:
  3641  00719E  BE02               	btfsc	(digitalWrite@pin+1)^0,7,c
  3642  0071A0  EFDD  F038         	goto	u1650
  3643  0071A4  5002               	movf	(digitalWrite@pin+1)^0,w,c
  3644  0071A6  E107               	bnz	u1651
  3645  0071A8  0E18               	movlw	24
  3646  0071AA  5C01               	subwf	digitalWrite@pin^0,w,c
  3647  0071AC  B0D8               	btfsc	status,0,c
  3648  0071AE  EFDB  F038         	goto	u1651
  3649  0071B2  EFDD  F038         	goto	u1650
  3650  0071B6                     u1651:
  3651  0071B6  EF0B  F039         	goto	l2202
  3652  0071BA                     u1650:
  3653  0071BA                     
  3654                           ;io.c: 24:         pin -=16;
  3655  0071BA  0EF0               	movlw	240
  3656  0071BC  2601               	addwf	digitalWrite@pin^0,f,c
  3657  0071BE  0EFF               	movlw	255
  3658  0071C0  2202               	addwfc	(digitalWrite@pin+1)^0,f,c
  3659                           
  3660                           ;io.c: 25:         if (value){ ((PORTC) |= (1<<(pin)));}
  3661  0071C2  5003               	movf	digitalWrite@value^0,w,c
  3662  0071C4  1004               	iorwf	(digitalWrite@value+1)^0,w,c
  3663  0071C6  B4D8               	btfsc	status,2,c
  3664  0071C8  EFE8  F038         	goto	u1661
  3665  0071CC  EFEA  F038         	goto	u1660
  3666  0071D0                     u1661:
  3667  0071D0  EFFA  F038         	goto	l2200
  3668  0071D4                     u1660:
  3669  0071D4  C001  F005         	movff	digitalWrite@pin,??_digitalWrite
  3670  0071D8  0E01               	movlw	1
  3671  0071DA  6E06               	movwf	(??_digitalWrite+1)^0,c
  3672  0071DC  2A05               	incf	??_digitalWrite^0,f,c
  3673  0071DE  EFF3  F038         	goto	u1674
  3674  0071E2                     u1675:
  3675  0071E2  90D8               	bcf	status,0,c
  3676  0071E4  3606               	rlcf	(??_digitalWrite+1)^0,f,c
  3677  0071E6                     u1674:
  3678  0071E6  2E05               	decfsz	??_digitalWrite^0,f,c
  3679  0071E8  EFF1  F038         	goto	u1675
  3680  0071EC  5006               	movf	(??_digitalWrite+1)^0,w,c
  3681  0071EE  1282               	iorwf	130,f,c	;volatile
  3682  0071F0  EF81  F039         	goto	l174
  3683  0071F4                     l2200:
  3684  0071F4  C001  F005         	movff	digitalWrite@pin,??_digitalWrite
  3685  0071F8  0E01               	movlw	1
  3686  0071FA  6E06               	movwf	(??_digitalWrite+1)^0,c
  3687  0071FC  2A05               	incf	??_digitalWrite^0,f,c
  3688  0071FE  EF03  F039         	goto	u1684
  3689  007202                     u1685:
  3690  007202  90D8               	bcf	status,0,c
  3691  007204  3606               	rlcf	(??_digitalWrite+1)^0,f,c
  3692  007206                     u1684:
  3693  007206  2E05               	decfsz	??_digitalWrite^0,f,c
  3694  007208  EF01  F039         	goto	u1685
  3695  00720C  5006               	movf	(??_digitalWrite+1)^0,w,c
  3696  00720E  0AFF               	xorlw	255
  3697  007210  1682               	andwf	130,f,c	;volatile
  3698  007212  EF81  F039         	goto	l174
  3699  007216                     l2202:
  3700  007216  BE02               	btfsc	(digitalWrite@pin+1)^0,7,c
  3701  007218  EF19  F039         	goto	u1690
  3702  00721C  5002               	movf	(digitalWrite@pin+1)^0,w,c
  3703  00721E  E107               	bnz	u1691
  3704  007220  0E20               	movlw	32
  3705  007222  5C01               	subwf	digitalWrite@pin^0,w,c
  3706  007224  B0D8               	btfsc	status,0,c
  3707  007226  EF17  F039         	goto	u1691
  3708  00722A  EF19  F039         	goto	u1690
  3709  00722E                     u1691:
  3710  00722E  EF47  F039         	goto	l2210
  3711  007232                     u1690:
  3712  007232                     
  3713                           ;io.c: 28:         pin -=24;
  3714  007232  0EE8               	movlw	232
  3715  007234  2601               	addwf	digitalWrite@pin^0,f,c
  3716  007236  0EFF               	movlw	255
  3717  007238  2202               	addwfc	(digitalWrite@pin+1)^0,f,c
  3718                           
  3719                           ;io.c: 29:         if (value){ ((PORTD) |= (1<<(pin)));}
  3720  00723A  5003               	movf	digitalWrite@value^0,w,c
  3721  00723C  1004               	iorwf	(digitalWrite@value+1)^0,w,c
  3722  00723E  B4D8               	btfsc	status,2,c
  3723  007240  EF24  F039         	goto	u1701
  3724  007244  EF26  F039         	goto	u1700
  3725  007248                     u1701:
  3726  007248  EF36  F039         	goto	l2208
  3727  00724C                     u1700:
  3728  00724C  C001  F005         	movff	digitalWrite@pin,??_digitalWrite
  3729  007250  0E01               	movlw	1
  3730  007252  6E06               	movwf	(??_digitalWrite+1)^0,c
  3731  007254  2A05               	incf	??_digitalWrite^0,f,c
  3732  007256  EF2F  F039         	goto	u1714
  3733  00725A                     u1715:
  3734  00725A  90D8               	bcf	status,0,c
  3735  00725C  3606               	rlcf	(??_digitalWrite+1)^0,f,c
  3736  00725E                     u1714:
  3737  00725E  2E05               	decfsz	??_digitalWrite^0,f,c
  3738  007260  EF2D  F039         	goto	u1715
  3739  007264  5006               	movf	(??_digitalWrite+1)^0,w,c
  3740  007266  1283               	iorwf	131,f,c	;volatile
  3741  007268  EF81  F039         	goto	l174
  3742  00726C                     l2208:
  3743  00726C  C001  F005         	movff	digitalWrite@pin,??_digitalWrite
  3744  007270  0E01               	movlw	1
  3745  007272  6E06               	movwf	(??_digitalWrite+1)^0,c
  3746  007274  2A05               	incf	??_digitalWrite^0,f,c
  3747  007276  EF3F  F039         	goto	u1724
  3748  00727A                     u1725:
  3749  00727A  90D8               	bcf	status,0,c
  3750  00727C  3606               	rlcf	(??_digitalWrite+1)^0,f,c
  3751  00727E                     u1724:
  3752  00727E  2E05               	decfsz	??_digitalWrite^0,f,c
  3753  007280  EF3D  F039         	goto	u1725
  3754  007284  5006               	movf	(??_digitalWrite+1)^0,w,c
  3755  007286  0AFF               	xorlw	255
  3756  007288  1683               	andwf	131,f,c	;volatile
  3757  00728A  EF81  F039         	goto	l174
  3758  00728E                     l2210:
  3759  00728E  BE02               	btfsc	(digitalWrite@pin+1)^0,7,c
  3760  007290  EF55  F039         	goto	u1730
  3761  007294  5002               	movf	(digitalWrite@pin+1)^0,w,c
  3762  007296  E107               	bnz	u1731
  3763  007298  0E28               	movlw	40
  3764  00729A  5C01               	subwf	digitalWrite@pin^0,w,c
  3765  00729C  B0D8               	btfsc	status,0,c
  3766  00729E  EF53  F039         	goto	u1731
  3767  0072A2  EF55  F039         	goto	u1730
  3768  0072A6                     u1731:
  3769  0072A6  EF81  F039         	goto	l174
  3770  0072AA                     u1730:
  3771  0072AA                     
  3772                           ;io.c: 32:         pin -=32;
  3773  0072AA  0EE0               	movlw	224
  3774  0072AC  2601               	addwf	digitalWrite@pin^0,f,c
  3775  0072AE  0EFF               	movlw	255
  3776  0072B0  2202               	addwfc	(digitalWrite@pin+1)^0,f,c
  3777                           
  3778                           ;io.c: 33:         if (value){ ((PORTE) |= (1<<(pin)));}
  3779  0072B2  5003               	movf	digitalWrite@value^0,w,c
  3780  0072B4  1004               	iorwf	(digitalWrite@value+1)^0,w,c
  3781  0072B6  B4D8               	btfsc	status,2,c
  3782  0072B8  EF60  F039         	goto	u1741
  3783  0072BC  EF62  F039         	goto	u1740
  3784  0072C0                     u1741:
  3785  0072C0  EF72  F039         	goto	l2216
  3786  0072C4                     u1740:
  3787  0072C4  C001  F005         	movff	digitalWrite@pin,??_digitalWrite
  3788  0072C8  0E01               	movlw	1
  3789  0072CA  6E06               	movwf	(??_digitalWrite+1)^0,c
  3790  0072CC  2A05               	incf	??_digitalWrite^0,f,c
  3791  0072CE  EF6B  F039         	goto	u1754
  3792  0072D2                     u1755:
  3793  0072D2  90D8               	bcf	status,0,c
  3794  0072D4  3606               	rlcf	(??_digitalWrite+1)^0,f,c
  3795  0072D6                     u1754:
  3796  0072D6  2E05               	decfsz	??_digitalWrite^0,f,c
  3797  0072D8  EF69  F039         	goto	u1755
  3798  0072DC  5006               	movf	(??_digitalWrite+1)^0,w,c
  3799  0072DE  1284               	iorwf	132,f,c	;volatile
  3800  0072E0  EF81  F039         	goto	l174
  3801  0072E4                     l2216:
  3802  0072E4  C001  F005         	movff	digitalWrite@pin,??_digitalWrite
  3803  0072E8  0E01               	movlw	1
  3804  0072EA  6E06               	movwf	(??_digitalWrite+1)^0,c
  3805  0072EC  2A05               	incf	??_digitalWrite^0,f,c
  3806  0072EE  EF7B  F039         	goto	u1764
  3807  0072F2                     u1765:
  3808  0072F2  90D8               	bcf	status,0,c
  3809  0072F4  3606               	rlcf	(??_digitalWrite+1)^0,f,c
  3810  0072F6                     u1764:
  3811  0072F6  2E05               	decfsz	??_digitalWrite^0,f,c
  3812  0072F8  EF79  F039         	goto	u1765
  3813  0072FC  5006               	movf	(??_digitalWrite+1)^0,w,c
  3814  0072FE  0AFF               	xorlw	255
  3815  007300  1684               	andwf	132,f,c	;volatile
  3816  007302                     l174:
  3817  007302  0012               	return		;funcret
  3818  007304                     __end_of_digitalWrite:
  3819                           	callstack 0
  3820                           
  3821 ;; *************** function _ssdInit *****************
  3822 ;; Defined at:
  3823 ;;		line 101 in file "ssd.c"
  3824 ;; Parameters:    Size  Location     Type
  3825 ;;		None
  3826 ;; Auto vars:     Size  Location     Type
  3827 ;;		None
  3828 ;; Return value:  Size  Location     Type
  3829 ;;                  1    wreg      void 
  3830 ;; Registers used:
  3831 ;;		wreg, status,2, status,0, cstack
  3832 ;; Tracked objects:
  3833 ;;		On entry : 0/0
  3834 ;;		On exit  : 0/0
  3835 ;;		Unchanged: 0/0
  3836 ;; Data sizes:     COMRAM   BANK0   BANK1   BANK2   BANK3   BANK4   BANK5
  3837 ;;      Params:         0       0       0       0       0       0       0
  3838 ;;      Locals:         0       0       0       0       0       0       0
  3839 ;;      Temps:          0       0       0       0       0       0       0
  3840 ;;      Totals:         0       0       0       0       0       0       0
  3841 ;;Total ram usage:        0 bytes
  3842 ;; Hardware stack levels used:    1
  3843 ;; Hardware stack levels required when called:    1
  3844 ;; This function calls:
  3845 ;;		_pinMode
  3846 ;; This function is called by:
  3847 ;;		_main
  3848 ;; This function uses a non-reentrant model
  3849 ;;
  3850                           
  3851                           	psect	text5
  3852  00611A                     __ptext5:
  3853                           	callstack 0
  3854  00611A                     _ssdInit:
  3855                           	callstack 29
  3856  00611A                     
  3857                           ;ssd.c: 103:     pinMode(PIN_A2, 0);
  3858  00611A  0E00               	movlw	0
  3859  00611C  6E02               	movwf	(pinMode@pin+1)^0,c
  3860  00611E  0E02               	movlw	2
  3861  006120  6E01               	movwf	pinMode@pin^0,c
  3862  006122  0E00               	movlw	0
  3863  006124  6E04               	movwf	(pinMode@type+1)^0,c
  3864  006126  0E00               	movlw	0
  3865  006128  6E03               	movwf	pinMode@type^0,c
  3866  00612A  EC34  F037         	call	_pinMode	;wreg free
  3867                           
  3868                           ;ssd.c: 104:     pinMode(PIN_A3, 0);
  3869  00612E  0E00               	movlw	0
  3870  006130  6E02               	movwf	(pinMode@pin+1)^0,c
  3871  006132  0E03               	movlw	3
  3872  006134  6E01               	movwf	pinMode@pin^0,c
  3873  006136  0E00               	movlw	0
  3874  006138  6E04               	movwf	(pinMode@type+1)^0,c
  3875  00613A  0E00               	movlw	0
  3876  00613C  6E03               	movwf	pinMode@type^0,c
  3877  00613E  EC34  F037         	call	_pinMode	;wreg free
  3878                           
  3879                           ;ssd.c: 105:     pinMode(PIN_A4, 0);
  3880  006142  0E00               	movlw	0
  3881  006144  6E02               	movwf	(pinMode@pin+1)^0,c
  3882  006146  0E04               	movlw	4
  3883  006148  6E01               	movwf	pinMode@pin^0,c
  3884  00614A  0E00               	movlw	0
  3885  00614C  6E04               	movwf	(pinMode@type+1)^0,c
  3886  00614E  0E00               	movlw	0
  3887  006150  6E03               	movwf	pinMode@type^0,c
  3888  006152  EC34  F037         	call	_pinMode	;wreg free
  3889                           
  3890                           ;ssd.c: 106:     pinMode(PIN_A5, 0);
  3891  006156  0E00               	movlw	0
  3892  006158  6E02               	movwf	(pinMode@pin+1)^0,c
  3893  00615A  0E05               	movlw	5
  3894  00615C  6E01               	movwf	pinMode@pin^0,c
  3895  00615E  0E00               	movlw	0
  3896  006160  6E04               	movwf	(pinMode@type+1)^0,c
  3897  006162  0E00               	movlw	0
  3898  006164  6E03               	movwf	pinMode@type^0,c
  3899  006166  EC34  F037         	call	_pinMode	;wreg free
  3900  00616A                     
  3901                           ;ssd.c: 109:     TRISD = 0x00;
  3902  00616A  0E00               	movlw	0
  3903  00616C  6E95               	movwf	149,c	;volatile
  3904  00616E  0012               	return		;funcret
  3905  006170                     __end_of_ssdInit:
  3906                           	callstack 0
  3907                           
  3908 ;; *************** function _pinMode *****************
  3909 ;; Defined at:
  3910 ;;		line 54 in file "io.c"
  3911 ;; Parameters:    Size  Location     Type
  3912 ;;  pin             2    0[COMRAM] int 
  3913 ;;  type            2    2[COMRAM] int 
  3914 ;; Auto vars:     Size  Location     Type
  3915 ;;		None
  3916 ;; Return value:  Size  Location     Type
  3917 ;;                  1    wreg      void 
  3918 ;; Registers used:
  3919 ;;		wreg, status,2, status,0
  3920 ;; Tracked objects:
  3921 ;;		On entry : 0/0
  3922 ;;		On exit  : 0/0
  3923 ;;		Unchanged: 0/0
  3924 ;; Data sizes:     COMRAM   BANK0   BANK1   BANK2   BANK3   BANK4   BANK5
  3925 ;;      Params:         4       0       0       0       0       0       0
  3926 ;;      Locals:         0       0       0       0       0       0       0
  3927 ;;      Temps:          2       0       0       0       0       0       0
  3928 ;;      Totals:         6       0       0       0       0       0       0
  3929 ;;Total ram usage:        6 bytes
  3930 ;; Hardware stack levels used:    1
  3931 ;; This function calls:
  3932 ;;		Nothing
  3933 ;; This function is called by:
  3934 ;;		_ssdInit
  3935 ;; This function uses a non-reentrant model
  3936 ;;
  3937                           
  3938                           	psect	text6
  3939  006E68                     __ptext6:
  3940                           	callstack 0
  3941  006E68                     _pinMode:
  3942                           	callstack 29
  3943  006E68                     
  3944                           ;io.c: 56:     if(pin <8){
  3945  006E68  BE02               	btfsc	(pinMode@pin+1)^0,7,c
  3946  006E6A  EF42  F037         	goto	u1770
  3947  006E6E  5002               	movf	(pinMode@pin+1)^0,w,c
  3948  006E70  E107               	bnz	u1771
  3949  006E72  0E08               	movlw	8
  3950  006E74  5C01               	subwf	pinMode@pin^0,w,c
  3951  006E76  B0D8               	btfsc	status,0,c
  3952  006E78  EF40  F037         	goto	u1771
  3953  006E7C  EF42  F037         	goto	u1770
  3954  006E80                     u1771:
  3955  006E80  EF6C  F037         	goto	l2226
  3956  006E84                     u1770:
  3957  006E84                     
  3958                           ;io.c: 57:         if (type){ ((TRISA) |= (1<<(pin)));}
  3959  006E84  5003               	movf	pinMode@type^0,w,c
  3960  006E86  1004               	iorwf	(pinMode@type+1)^0,w,c
  3961  006E88  B4D8               	btfsc	status,2,c
  3962  006E8A  EF49  F037         	goto	u1781
  3963  006E8E  EF4B  F037         	goto	u1780
  3964  006E92                     u1781:
  3965  006E92  EF5B  F037         	goto	l2224
  3966  006E96                     u1780:
  3967  006E96  C001  F005         	movff	pinMode@pin,??_pinMode
  3968  006E9A  0E01               	movlw	1
  3969  006E9C  6E06               	movwf	(??_pinMode+1)^0,c
  3970  006E9E  2A05               	incf	??_pinMode^0,f,c
  3971  006EA0  EF54  F037         	goto	u1794
  3972  006EA4                     u1795:
  3973  006EA4  90D8               	bcf	status,0,c
  3974  006EA6  3606               	rlcf	(??_pinMode+1)^0,f,c
  3975  006EA8                     u1794:
  3976  006EA8  2E05               	decfsz	??_pinMode^0,f,c
  3977  006EAA  EF52  F037         	goto	u1795
  3978  006EAE  5006               	movf	(??_pinMode+1)^0,w,c
  3979  006EB0  1292               	iorwf	146,f,c	;volatile
  3980  006EB2  EF5A  F038         	goto	l208
  3981  006EB6                     l2224:
  3982  006EB6  C001  F005         	movff	pinMode@pin,??_pinMode
  3983  006EBA  0E01               	movlw	1
  3984  006EBC  6E06               	movwf	(??_pinMode+1)^0,c
  3985  006EBE  2A05               	incf	??_pinMode^0,f,c
  3986  006EC0  EF64  F037         	goto	u1804
  3987  006EC4                     u1805:
  3988  006EC4  90D8               	bcf	status,0,c
  3989  006EC6  3606               	rlcf	(??_pinMode+1)^0,f,c
  3990  006EC8                     u1804:
  3991  006EC8  2E05               	decfsz	??_pinMode^0,f,c
  3992  006ECA  EF62  F037         	goto	u1805
  3993  006ECE  5006               	movf	(??_pinMode+1)^0,w,c
  3994  006ED0  0AFF               	xorlw	255
  3995  006ED2  1692               	andwf	146,f,c	;volatile
  3996  006ED4  EF5A  F038         	goto	l208
  3997  006ED8                     l2226:
  3998  006ED8  BE02               	btfsc	(pinMode@pin+1)^0,7,c
  3999  006EDA  EF7A  F037         	goto	u1810
  4000  006EDE  5002               	movf	(pinMode@pin+1)^0,w,c
  4001  006EE0  E107               	bnz	u1811
  4002  006EE2  0E10               	movlw	16
  4003  006EE4  5C01               	subwf	pinMode@pin^0,w,c
  4004  006EE6  B0D8               	btfsc	status,0,c
  4005  006EE8  EF78  F037         	goto	u1811
  4006  006EEC  EF7A  F037         	goto	u1810
  4007  006EF0                     u1811:
  4008  006EF0  EFA8  F037         	goto	l2234
  4009  006EF4                     u1810:
  4010  006EF4                     
  4011                           ;io.c: 60:         if (type){ ((TRISB) |= (1<<(pin-8)));}
  4012  006EF4  5003               	movf	pinMode@type^0,w,c
  4013  006EF6  1004               	iorwf	(pinMode@type+1)^0,w,c
  4014  006EF8  B4D8               	btfsc	status,2,c
  4015  006EFA  EF81  F037         	goto	u1821
  4016  006EFE  EF83  F037         	goto	u1820
  4017  006F02                     u1821:
  4018  006F02  EF95  F037         	goto	l2232
  4019  006F06                     u1820:
  4020  006F06  C001  F005         	movff	pinMode@pin,??_pinMode
  4021  006F0A  0EF8               	movlw	-8
  4022  006F0C  2605               	addwf	??_pinMode^0,f,c
  4023  006F0E  0E01               	movlw	1
  4024  006F10  6E06               	movwf	(??_pinMode+1)^0,c
  4025  006F12  2A05               	incf	??_pinMode^0,f,c
  4026  006F14  EF8E  F037         	goto	u1834
  4027  006F18                     u1835:
  4028  006F18  90D8               	bcf	status,0,c
  4029  006F1A  3606               	rlcf	(??_pinMode+1)^0,f,c
  4030  006F1C                     u1834:
  4031  006F1C  2E05               	decfsz	??_pinMode^0,f,c
  4032  006F1E  EF8C  F037         	goto	u1835
  4033  006F22  5006               	movf	(??_pinMode+1)^0,w,c
  4034  006F24  1293               	iorwf	147,f,c	;volatile
  4035  006F26  EF5A  F038         	goto	l208
  4036  006F2A                     l2232:
  4037  006F2A  C001  F005         	movff	pinMode@pin,??_pinMode
  4038  006F2E  0EF8               	movlw	-8
  4039  006F30  2605               	addwf	??_pinMode^0,f,c
  4040  006F32  0E01               	movlw	1
  4041  006F34  6E06               	movwf	(??_pinMode+1)^0,c
  4042  006F36  2A05               	incf	??_pinMode^0,f,c
  4043  006F38  EFA0  F037         	goto	u1844
  4044  006F3C                     u1845:
  4045  006F3C  90D8               	bcf	status,0,c
  4046  006F3E  3606               	rlcf	(??_pinMode+1)^0,f,c
  4047  006F40                     u1844:
  4048  006F40  2E05               	decfsz	??_pinMode^0,f,c
  4049  006F42  EF9E  F037         	goto	u1845
  4050  006F46  5006               	movf	(??_pinMode+1)^0,w,c
  4051  006F48  0AFF               	xorlw	255
  4052  006F4A  1693               	andwf	147,f,c	;volatile
  4053  006F4C  EF5A  F038         	goto	l208
  4054  006F50                     l2234:
  4055  006F50  BE02               	btfsc	(pinMode@pin+1)^0,7,c
  4056  006F52  EFB6  F037         	goto	u1850
  4057  006F56  5002               	movf	(pinMode@pin+1)^0,w,c
  4058  006F58  E107               	bnz	u1851
  4059  006F5A  0E18               	movlw	24
  4060  006F5C  5C01               	subwf	pinMode@pin^0,w,c
  4061  006F5E  B0D8               	btfsc	status,0,c
  4062  006F60  EFB4  F037         	goto	u1851
  4063  006F64  EFB6  F037         	goto	u1850
  4064  006F68                     u1851:
  4065  006F68  EFE4  F037         	goto	l2242
  4066  006F6C                     u1850:
  4067  006F6C                     
  4068                           ;io.c: 63:         if (type){ ((TRISC) |= (1<<(pin-16)));}
  4069  006F6C  5003               	movf	pinMode@type^0,w,c
  4070  006F6E  1004               	iorwf	(pinMode@type+1)^0,w,c
  4071  006F70  B4D8               	btfsc	status,2,c
  4072  006F72  EFBD  F037         	goto	u1861
  4073  006F76  EFBF  F037         	goto	u1860
  4074  006F7A                     u1861:
  4075  006F7A  EFD1  F037         	goto	l2240
  4076  006F7E                     u1860:
  4077  006F7E  C001  F005         	movff	pinMode@pin,??_pinMode
  4078  006F82  0EF0               	movlw	-16
  4079  006F84  2605               	addwf	??_pinMode^0,f,c
  4080  006F86  0E01               	movlw	1
  4081  006F88  6E06               	movwf	(??_pinMode+1)^0,c
  4082  006F8A  2A05               	incf	??_pinMode^0,f,c
  4083  006F8C  EFCA  F037         	goto	u1874
  4084  006F90                     u1875:
  4085  006F90  90D8               	bcf	status,0,c
  4086  006F92  3606               	rlcf	(??_pinMode+1)^0,f,c
  4087  006F94                     u1874:
  4088  006F94  2E05               	decfsz	??_pinMode^0,f,c
  4089  006F96  EFC8  F037         	goto	u1875
  4090  006F9A  5006               	movf	(??_pinMode+1)^0,w,c
  4091  006F9C  1294               	iorwf	148,f,c	;volatile
  4092  006F9E  EF5A  F038         	goto	l208
  4093  006FA2                     l2240:
  4094  006FA2  C001  F005         	movff	pinMode@pin,??_pinMode
  4095  006FA6  0EF0               	movlw	-16
  4096  006FA8  2605               	addwf	??_pinMode^0,f,c
  4097  006FAA  0E01               	movlw	1
  4098  006FAC  6E06               	movwf	(??_pinMode+1)^0,c
  4099  006FAE  2A05               	incf	??_pinMode^0,f,c
  4100  006FB0  EFDC  F037         	goto	u1884
  4101  006FB4                     u1885:
  4102  006FB4  90D8               	bcf	status,0,c
  4103  006FB6  3606               	rlcf	(??_pinMode+1)^0,f,c
  4104  006FB8                     u1884:
  4105  006FB8  2E05               	decfsz	??_pinMode^0,f,c
  4106  006FBA  EFDA  F037         	goto	u1885
  4107  006FBE  5006               	movf	(??_pinMode+1)^0,w,c
  4108  006FC0  0AFF               	xorlw	255
  4109  006FC2  1694               	andwf	148,f,c	;volatile
  4110  006FC4  EF5A  F038         	goto	l208
  4111  006FC8                     l2242:
  4112  006FC8  BE02               	btfsc	(pinMode@pin+1)^0,7,c
  4113  006FCA  EFF2  F037         	goto	u1890
  4114  006FCE  5002               	movf	(pinMode@pin+1)^0,w,c
  4115  006FD0  E107               	bnz	u1891
  4116  006FD2  0E20               	movlw	32
  4117  006FD4  5C01               	subwf	pinMode@pin^0,w,c
  4118  006FD6  B0D8               	btfsc	status,0,c
  4119  006FD8  EFF0  F037         	goto	u1891
  4120  006FDC  EFF2  F037         	goto	u1890
  4121  006FE0                     u1891:
  4122  006FE0  EF20  F038         	goto	l2250
  4123  006FE4                     u1890:
  4124  006FE4                     
  4125                           ;io.c: 66:         if (type){ ((TRISD) |= (1<<(pin-24)));}
  4126  006FE4  5003               	movf	pinMode@type^0,w,c
  4127  006FE6  1004               	iorwf	(pinMode@type+1)^0,w,c
  4128  006FE8  B4D8               	btfsc	status,2,c
  4129  006FEA  EFF9  F037         	goto	u1901
  4130  006FEE  EFFB  F037         	goto	u1900
  4131  006FF2                     u1901:
  4132  006FF2  EF0D  F038         	goto	l2248
  4133  006FF6                     u1900:
  4134  006FF6  C001  F005         	movff	pinMode@pin,??_pinMode
  4135  006FFA  0EE8               	movlw	-24
  4136  006FFC  2605               	addwf	??_pinMode^0,f,c
  4137  006FFE  0E01               	movlw	1
  4138  007000  6E06               	movwf	(??_pinMode+1)^0,c
  4139  007002  2A05               	incf	??_pinMode^0,f,c
  4140  007004  EF06  F038         	goto	u1914
  4141  007008                     u1915:
  4142  007008  90D8               	bcf	status,0,c
  4143  00700A  3606               	rlcf	(??_pinMode+1)^0,f,c
  4144  00700C                     u1914:
  4145  00700C  2E05               	decfsz	??_pinMode^0,f,c
  4146  00700E  EF04  F038         	goto	u1915
  4147  007012  5006               	movf	(??_pinMode+1)^0,w,c
  4148  007014  1295               	iorwf	149,f,c	;volatile
  4149  007016  EF5A  F038         	goto	l208
  4150  00701A                     l2248:
  4151  00701A  C001  F005         	movff	pinMode@pin,??_pinMode
  4152  00701E  0EE8               	movlw	-24
  4153  007020  2605               	addwf	??_pinMode^0,f,c
  4154  007022  0E01               	movlw	1
  4155  007024  6E06               	movwf	(??_pinMode+1)^0,c
  4156  007026  2A05               	incf	??_pinMode^0,f,c
  4157  007028  EF18  F038         	goto	u1924
  4158  00702C                     u1925:
  4159  00702C  90D8               	bcf	status,0,c
  4160  00702E  3606               	rlcf	(??_pinMode+1)^0,f,c
  4161  007030                     u1924:
  4162  007030  2E05               	decfsz	??_pinMode^0,f,c
  4163  007032  EF16  F038         	goto	u1925
  4164  007036  5006               	movf	(??_pinMode+1)^0,w,c
  4165  007038  0AFF               	xorlw	255
  4166  00703A  1695               	andwf	149,f,c	;volatile
  4167  00703C  EF5A  F038         	goto	l208
  4168  007040                     l2250:
  4169  007040  BE02               	btfsc	(pinMode@pin+1)^0,7,c
  4170  007042  EF2E  F038         	goto	u1930
  4171  007046  5002               	movf	(pinMode@pin+1)^0,w,c
  4172  007048  E107               	bnz	u1931
  4173  00704A  0E28               	movlw	40
  4174  00704C  5C01               	subwf	pinMode@pin^0,w,c
  4175  00704E  B0D8               	btfsc	status,0,c
  4176  007050  EF2C  F038         	goto	u1931
  4177  007054  EF2E  F038         	goto	u1930
  4178  007058                     u1931:
  4179  007058  EF5A  F038         	goto	l208
  4180  00705C                     u1930:
  4181  00705C                     
  4182                           ;io.c: 69:         if (type){ ((TRISE) |= (1<<(pin-32)));}
  4183  00705C  5003               	movf	pinMode@type^0,w,c
  4184  00705E  1004               	iorwf	(pinMode@type+1)^0,w,c
  4185  007060  B4D8               	btfsc	status,2,c
  4186  007062  EF35  F038         	goto	u1941
  4187  007066  EF37  F038         	goto	u1940
  4188  00706A                     u1941:
  4189  00706A  EF49  F038         	goto	l2256
  4190  00706E                     u1940:
  4191  00706E  C001  F005         	movff	pinMode@pin,??_pinMode
  4192  007072  0EE0               	movlw	-32
  4193  007074  2605               	addwf	??_pinMode^0,f,c
  4194  007076  0E01               	movlw	1
  4195  007078  6E06               	movwf	(??_pinMode+1)^0,c
  4196  00707A  2A05               	incf	??_pinMode^0,f,c
  4197  00707C  EF42  F038         	goto	u1954
  4198  007080                     u1955:
  4199  007080  90D8               	bcf	status,0,c
  4200  007082  3606               	rlcf	(??_pinMode+1)^0,f,c
  4201  007084                     u1954:
  4202  007084  2E05               	decfsz	??_pinMode^0,f,c
  4203  007086  EF40  F038         	goto	u1955
  4204  00708A  5006               	movf	(??_pinMode+1)^0,w,c
  4205  00708C  1296               	iorwf	150,f,c	;volatile
  4206  00708E  EF5A  F038         	goto	l208
  4207  007092                     l2256:
  4208  007092  C001  F005         	movff	pinMode@pin,??_pinMode
  4209  007096  0EE0               	movlw	-32
  4210  007098  2605               	addwf	??_pinMode^0,f,c
  4211  00709A  0E01               	movlw	1
  4212  00709C  6E06               	movwf	(??_pinMode+1)^0,c
  4213  00709E  2A05               	incf	??_pinMode^0,f,c
  4214  0070A0  EF54  F038         	goto	u1964
  4215  0070A4                     u1965:
  4216  0070A4  90D8               	bcf	status,0,c
  4217  0070A6  3606               	rlcf	(??_pinMode+1)^0,f,c
  4218  0070A8                     u1964:
  4219  0070A8  2E05               	decfsz	??_pinMode^0,f,c
  4220  0070AA  EF52  F038         	goto	u1965
  4221  0070AE  5006               	movf	(??_pinMode+1)^0,w,c
  4222  0070B0  0AFF               	xorlw	255
  4223  0070B2  1696               	andwf	150,f,c	;volatile
  4224  0070B4                     l208:
  4225  0070B4  0012               	return		;funcret
  4226  0070B6                     __end_of_pinMode:
  4227                           	callstack 0
  4228                           
  4229 ;; *************** function _ssdDigit *****************
  4230 ;; Defined at:
  4231 ;;		line 38 in file "ssd.c"
  4232 ;; Parameters:    Size  Location     Type
  4233 ;;  val             1    wreg     unsigned char 
  4234 ;;  pos             1   14[COMRAM] unsigned char 
  4235 ;; Auto vars:     Size  Location     Type
  4236 ;;  val             1   15[COMRAM] unsigned char 
  4237 ;; Return value:  Size  Location     Type
  4238 ;;                  1    wreg      void 
  4239 ;; Registers used:
  4240 ;;		wreg, status,2, status,0
  4241 ;; Tracked objects:
  4242 ;;		On entry : 0/0
  4243 ;;		On exit  : 0/0
  4244 ;;		Unchanged: 0/0
  4245 ;; Data sizes:     COMRAM   BANK0   BANK1   BANK2   BANK3   BANK4   BANK5
  4246 ;;      Params:         1       0       0       0       0       0       0
  4247 ;;      Locals:         1       0       0       0       0       0       0
  4248 ;;      Temps:          0       0       0       0       0       0       0
  4249 ;;      Totals:         2       0       0       0       0       0       0
  4250 ;;Total ram usage:        2 bytes
  4251 ;; Hardware stack levels used:    1
  4252 ;; This function calls:
  4253 ;;		Nothing
  4254 ;; This function is called by:
  4255 ;;		_main
  4256 ;; This function uses a non-reentrant model
  4257 ;;
  4258                           
  4259                           	psect	text7
  4260  006170                     __ptext7:
  4261                           	callstack 0
  4262  006170                     _ssdDigit:
  4263                           	callstack 30
  4264                           
  4265                           ;incstack = 0
  4266                           ;ssdDigit@val stored from wreg
  4267  006170  6E10               	movwf	ssdDigit@val^0,c
  4268  006172                     
  4269                           ;ssd.c: 39:     if (pos == 0) {
  4270  006172  500F               	movf	ssdDigit@pos^0,w,c
  4271  006174  A4D8               	btfss	status,2,c
  4272  006176  EFBF  F030         	goto	u2031
  4273  00617A  EFC1  F030         	goto	u2030
  4274  00617E                     u2031:
  4275  00617E  EFC3  F030         	goto	l2514
  4276  006182                     u2030:
  4277  006182                     
  4278                           ;ssd.c: 40:         v0 = val;
  4279  006182  C010  F076         	movff	ssdDigit@val,_v0
  4280  006186                     l2514:
  4281                           
  4282                           ;ssd.c: 42:     if (pos == 1) {
  4283  006186  040F               	decf	ssdDigit@pos^0,w,c
  4284  006188  A4D8               	btfss	status,2,c
  4285  00618A  EFC9  F030         	goto	u2041
  4286  00618E  EFCB  F030         	goto	u2040
  4287  006192                     u2041:
  4288  006192  EFCD  F030         	goto	l2518
  4289  006196                     u2040:
  4290  006196                     
  4291                           ;ssd.c: 43:         v1 = val;
  4292  006196  C010  F075         	movff	ssdDigit@val,_v1
  4293  00619A                     l2518:
  4294                           
  4295                           ;ssd.c: 45:     if (pos == 2) {
  4296  00619A  0E02               	movlw	2
  4297  00619C  180F               	xorwf	ssdDigit@pos^0,w,c
  4298  00619E  A4D8               	btfss	status,2,c
  4299  0061A0  EFD4  F030         	goto	u2051
  4300  0061A4  EFD6  F030         	goto	u2050
  4301  0061A8                     u2051:
  4302  0061A8  EFD8  F030         	goto	l2522
  4303  0061AC                     u2050:
  4304  0061AC                     
  4305                           ;ssd.c: 46:         v2 = val;
  4306  0061AC  C010  F074         	movff	ssdDigit@val,_v2
  4307  0061B0                     l2522:
  4308                           
  4309                           ;ssd.c: 48:     if (pos == 3) {
  4310  0061B0  0E03               	movlw	3
  4311  0061B2  180F               	xorwf	ssdDigit@pos^0,w,c
  4312  0061B4  A4D8               	btfss	status,2,c
  4313  0061B6  EFDF  F030         	goto	u2061
  4314  0061BA  EFE1  F030         	goto	u2060
  4315  0061BE                     u2061:
  4316  0061BE  EFE3  F030         	goto	l345
  4317  0061C2                     u2060:
  4318  0061C2                     
  4319                           ;ssd.c: 49:         v3 = val;
  4320  0061C2  C010  F073         	movff	ssdDigit@val,_v3
  4321  0061C6                     l345:
  4322  0061C6  0012               	return		;funcret
  4323  0061C8                     __end_of_ssdDigit:
  4324                           	callstack 0
  4325                           
  4326 ;; *************** function _pwmSet1 *****************
  4327 ;; Defined at:
  4328 ;;		line 23 in file "pwm.c"
  4329 ;; Parameters:    Size  Location     Type
  4330 ;;  porcento        1    wreg     unsigned char 
  4331 ;; Auto vars:     Size  Location     Type
  4332 ;;  porcento        1    9[COMRAM] unsigned char 
  4333 ;;  val             2   10[COMRAM] unsigned int 
  4334 ;; Return value:  Size  Location     Type
  4335 ;;                  1    wreg      void 
  4336 ;; Registers used:
  4337 ;;		wreg, status,2, status,0, prodl, prodh, cstack
  4338 ;; Tracked objects:
  4339 ;;		On entry : 0/0
  4340 ;;		On exit  : 0/0
  4341 ;;		Unchanged: 0/0
  4342 ;; Data sizes:     COMRAM   BANK0   BANK1   BANK2   BANK3   BANK4   BANK5
  4343 ;;      Params:         0       0       0       0       0       0       0
  4344 ;;      Locals:         3       0       0       0       0       0       0
  4345 ;;      Temps:          2       0       0       0       0       0       0
  4346 ;;      Totals:         5       0       0       0       0       0       0
  4347 ;;Total ram usage:        5 bytes
  4348 ;; Hardware stack levels used:    1
  4349 ;; Hardware stack levels required when called:    1
  4350 ;; This function calls:
  4351 ;;		___lwdiv
  4352 ;;		___wmul
  4353 ;; This function is called by:
  4354 ;;		_main
  4355 ;; This function uses a non-reentrant model
  4356 ;;
  4357                           
  4358                           	psect	text8
  4359  00634E                     __ptext8:
  4360                           	callstack 0
  4361  00634E                     _pwmSet1:
  4362                           	callstack 29
  4363                           
  4364                           ;incstack = 0
  4365                           ;pwmSet1@porcento stored from wreg
  4366  00634E  6E0A               	movwf	pwmSet1@porcento^0,c
  4367  006350                     
  4368                           ;pwm.c: 23: void pwmSet1(unsigned char porcento);pwm.c: 24: {;pwm.c: 30:  unsigned int v
      +                          al = ((unsigned int)porcento) *((*(volatile __near unsigned char*)0xFCB)+1);
  4369  006350  0E01               	movlw	1
  4370  006352  24CB               	addwf	203,w,c	;volatile
  4371  006354  6E01               	movwf	___wmul@multiplier^0,c
  4372  006356  6A02               	clrf	(___wmul@multiplier+1)^0,c
  4373  006358  0E00               	movlw	0
  4374  00635A  2202               	addwfc	(___wmul@multiplier+1)^0,f,c
  4375  00635C  C00A  F003         	movff	pwmSet1@porcento,___wmul@multiplicand
  4376  006360  6A04               	clrf	(___wmul@multiplicand+1)^0,c
  4377  006362  EC1A  F030         	call	___wmul	;wreg free
  4378  006366  C001  F00B         	movff	?___wmul,pwmSet1@val
  4379  00636A  C002  F00C         	movff	?___wmul+1,pwmSet1@val+1
  4380  00636E                     
  4381                           ;pwm.c: 31:  val = val / 25;
  4382  00636E  C00B  F001         	movff	pwmSet1@val,___lwdiv@dividend
  4383  006372  C00C  F002         	movff	pwmSet1@val+1,___lwdiv@dividend+1
  4384  006376  0E00               	movlw	0
  4385  006378  6E04               	movwf	(___lwdiv@divisor+1)^0,c
  4386  00637A  0E19               	movlw	25
  4387  00637C  6E03               	movwf	___lwdiv@divisor^0,c
  4388  00637E  ECDD  F031         	call	___lwdiv	;wreg free
  4389  006382  C001  F00B         	movff	?___lwdiv,pwmSet1@val
  4390  006386  C002  F00C         	movff	?___lwdiv+1,pwmSet1@val+1
  4391  00638A                     
  4392                           ;pwm.c: 33:  val &= 0x03ff;
  4393  00638A  0EFF               	movlw	255
  4394  00638C  160B               	andwf	pwmSet1@val^0,f,c
  4395  00638E  0E03               	movlw	3
  4396  006390  160C               	andwf	(pwmSet1@val+1)^0,f,c
  4397  006392                     
  4398                           ;pwm.c: 35:  (*(volatile __near unsigned char*)0xFBE) = val >> 2;
  4399  006392  C00B  F008         	movff	pwmSet1@val,??_pwmSet1
  4400  006396  C00C  F009         	movff	pwmSet1@val+1,??_pwmSet1+1
  4401  00639A  90D8               	bcf	status,0,c
  4402  00639C  3209               	rrcf	(??_pwmSet1+1)^0,f,c
  4403  00639E  3208               	rrcf	??_pwmSet1^0,f,c
  4404  0063A0  90D8               	bcf	status,0,c
  4405  0063A2  3209               	rrcf	(??_pwmSet1+1)^0,f,c
  4406  0063A4  3208               	rrcf	??_pwmSet1^0,f,c
  4407  0063A6  5008               	movf	??_pwmSet1^0,w,c
  4408  0063A8  6EBE               	movwf	190,c	;volatile
  4409  0063AA                     
  4410                           ;pwm.c: 37:  (*(volatile __near unsigned char*)0xFBD) |= (val & 0x0003) << 4;
  4411  0063AA  C00B  F008         	movff	pwmSet1@val,??_pwmSet1
  4412  0063AE  0E03               	movlw	3
  4413  0063B0  1608               	andwf	??_pwmSet1^0,f,c
  4414  0063B2  3808               	swapf	??_pwmSet1^0,w,c
  4415  0063B4  0BF0               	andlw	240
  4416  0063B6  12BD               	iorwf	189,f,c	;volatile
  4417  0063B8  0012               	return		;funcret
  4418  0063BA                     __end_of_pwmSet1:
  4419                           	callstack 0
  4420                           
  4421 ;; *************** function ___lwdiv *****************
  4422 ;; Defined at:
  4423 ;;		line 7 in file "C:\Program Files\Microchip\xc8\v2.20\pic\sources\c99\common\lwdiv.c"
  4424 ;; Parameters:    Size  Location     Type
  4425 ;;  dividend        2    0[COMRAM] unsigned int 
  4426 ;;  divisor         2    2[COMRAM] unsigned int 
  4427 ;; Auto vars:     Size  Location     Type
  4428 ;;  quotient        2    4[COMRAM] unsigned int 
  4429 ;;  counter         1    6[COMRAM] unsigned char 
  4430 ;; Return value:  Size  Location     Type
  4431 ;;                  2    0[COMRAM] unsigned int 
  4432 ;; Registers used:
  4433 ;;		wreg, status,2, status,0
  4434 ;; Tracked objects:
  4435 ;;		On entry : 0/0
  4436 ;;		On exit  : 0/0
  4437 ;;		Unchanged: 0/0
  4438 ;; Data sizes:     COMRAM   BANK0   BANK1   BANK2   BANK3   BANK4   BANK5
  4439 ;;      Params:         4       0       0       0       0       0       0
  4440 ;;      Locals:         3       0       0       0       0       0       0
  4441 ;;      Temps:          0       0       0       0       0       0       0
  4442 ;;      Totals:         7       0       0       0       0       0       0
  4443 ;;Total ram usage:        7 bytes
  4444 ;; Hardware stack levels used:    1
  4445 ;; This function calls:
  4446 ;;		Nothing
  4447 ;; This function is called by:
  4448 ;;		_pwmSet1
  4449 ;;		_pwmSet2
  4450 ;; This function uses a non-reentrant model
  4451 ;;
  4452                           
  4453                           	psect	text9
  4454  0063BA                     __ptext9:
  4455                           	callstack 0
  4456  0063BA                     ___lwdiv:
  4457                           	callstack 29
  4458  0063BA  0E00               	movlw	0
  4459  0063BC  6E06               	movwf	(___lwdiv@quotient+1)^0,c
  4460  0063BE  0E00               	movlw	0
  4461  0063C0  6E05               	movwf	___lwdiv@quotient^0,c
  4462  0063C2  5003               	movf	___lwdiv@divisor^0,w,c
  4463  0063C4  1004               	iorwf	(___lwdiv@divisor+1)^0,w,c
  4464  0063C6  B4D8               	btfsc	status,2,c
  4465  0063C8  EFE8  F031         	goto	u1971
  4466  0063CC  EFEA  F031         	goto	u1970
  4467  0063D0                     u1971:
  4468  0063D0  EF12  F032         	goto	l852
  4469  0063D4                     u1970:
  4470  0063D4  0E01               	movlw	1
  4471  0063D6  6E07               	movwf	___lwdiv@counter^0,c
  4472  0063D8  EFF2  F031         	goto	l2272
  4473  0063DC                     l2270:
  4474  0063DC  90D8               	bcf	status,0,c
  4475  0063DE  3603               	rlcf	___lwdiv@divisor^0,f,c
  4476  0063E0  3604               	rlcf	(___lwdiv@divisor+1)^0,f,c
  4477  0063E2  2A07               	incf	___lwdiv@counter^0,f,c
  4478  0063E4                     l2272:
  4479  0063E4  AE04               	btfss	(___lwdiv@divisor+1)^0,7,c
  4480  0063E6  EFF7  F031         	goto	u1981
  4481  0063EA  EFF9  F031         	goto	u1980
  4482  0063EE                     u1981:
  4483  0063EE  EFEE  F031         	goto	l2270
  4484  0063F2                     u1980:
  4485  0063F2                     l2274:
  4486  0063F2  90D8               	bcf	status,0,c
  4487  0063F4  3605               	rlcf	___lwdiv@quotient^0,f,c
  4488  0063F6  3606               	rlcf	(___lwdiv@quotient+1)^0,f,c
  4489  0063F8  5003               	movf	___lwdiv@divisor^0,w,c
  4490  0063FA  5C01               	subwf	___lwdiv@dividend^0,w,c
  4491  0063FC  5004               	movf	(___lwdiv@divisor+1)^0,w,c
  4492  0063FE  5802               	subwfb	(___lwdiv@dividend+1)^0,w,c
  4493  006400  A0D8               	btfss	status,0,c
  4494  006402  EF05  F032         	goto	u1991
  4495  006406  EF07  F032         	goto	u1990
  4496  00640A                     u1991:
  4497  00640A  EF0C  F032         	goto	l2282
  4498  00640E                     u1990:
  4499  00640E  5003               	movf	___lwdiv@divisor^0,w,c
  4500  006410  5E01               	subwf	___lwdiv@dividend^0,f,c
  4501  006412  5004               	movf	(___lwdiv@divisor+1)^0,w,c
  4502  006414  5A02               	subwfb	(___lwdiv@dividend+1)^0,f,c
  4503  006416  8005               	bsf	___lwdiv@quotient^0,0,c
  4504  006418                     l2282:
  4505  006418  90D8               	bcf	status,0,c
  4506  00641A  3204               	rrcf	(___lwdiv@divisor+1)^0,f,c
  4507  00641C  3203               	rrcf	___lwdiv@divisor^0,f,c
  4508  00641E  2E07               	decfsz	___lwdiv@counter^0,f,c
  4509  006420  EFF9  F031         	goto	l2274
  4510  006424                     l852:
  4511  006424  C005  F001         	movff	___lwdiv@quotient,?___lwdiv
  4512  006428  C006  F002         	movff	___lwdiv@quotient+1,?___lwdiv+1
  4513  00642C  0012               	return		;funcret
  4514  00642E                     __end_of___lwdiv:
  4515                           	callstack 0
  4516                           
  4517 ;; *************** function _pwmInit *****************
  4518 ;; Defined at:
  4519 ;;		line 59 in file "pwm.c"
  4520 ;; Parameters:    Size  Location     Type
  4521 ;;		None
  4522 ;; Auto vars:     Size  Location     Type
  4523 ;;		None
  4524 ;; Return value:  Size  Location     Type
  4525 ;;                  1    wreg      void 
  4526 ;; Registers used:
  4527 ;;		wreg, status,2, status,0
  4528 ;; Tracked objects:
  4529 ;;		On entry : 0/0
  4530 ;;		On exit  : 0/0
  4531 ;;		Unchanged: 0/0
  4532 ;; Data sizes:     COMRAM   BANK0   BANK1   BANK2   BANK3   BANK4   BANK5
  4533 ;;      Params:         0       0       0       0       0       0       0
  4534 ;;      Locals:         0       0       0       0       0       0       0
  4535 ;;      Temps:          0       0       0       0       0       0       0
  4536 ;;      Totals:         0       0       0       0       0       0       0
  4537 ;;Total ram usage:        0 bytes
  4538 ;; Hardware stack levels used:    1
  4539 ;; This function calls:
  4540 ;;		Nothing
  4541 ;; This function is called by:
  4542 ;;		_main
  4543 ;; This function uses a non-reentrant model
  4544 ;;
  4545                           
  4546                           	psect	text10
  4547  006020                     __ptext10:
  4548                           	callstack 0
  4549  006020                     _pwmInit:
  4550                           	callstack 30
  4551  006020                     
  4552                           ;pwm.c: 61:  (((*(volatile __near unsigned char*)0xF94)) &= ~(1<<1));
  4553  006020  9294               	bcf	148,1,c	;volatile
  4554                           
  4555                           ;pwm.c: 62:  (((*(volatile __near unsigned char*)0xF94)) &= ~(1<<2));
  4556  006022  9494               	bcf	148,2,c	;volatile
  4557  006024                     
  4558                           ;pwm.c: 64:  (*(volatile __near unsigned char*)0xFCA) |= 0b00000011;
  4559  006024  0E03               	movlw	3
  4560  006026  12CA               	iorwf	202,f,c	;volatile
  4561  006028                     
  4562                           ;pwm.c: 65:  (((*(volatile __near unsigned char*)0xFCA)) |= (1<<2));
  4563  006028  84CA               	bsf	202,2,c	;volatile
  4564                           
  4565                           ;pwm.c: 68:  (*(volatile __near unsigned char*)0xFBD) |= 0b00001100;
  4566  00602A  0E0C               	movlw	12
  4567  00602C  12BD               	iorwf	189,f,c	;volatile
  4568                           
  4569                           ;pwm.c: 69:  (*(volatile __near unsigned char*)0xFBA) |= 0b00001100;
  4570  00602E  0E0C               	movlw	12
  4571  006030  12BA               	iorwf	186,f,c	;volatile
  4572  006032  0012               	return		;funcret
  4573  006034                     __end_of_pwmInit:
  4574                           	callstack 0
  4575                           
  4576 ;; *************** function _lcd_init *****************
  4577 ;; Defined at:
  4578 ;;		line 29 in file "lcd.c"
  4579 ;; Parameters:    Size  Location     Type
  4580 ;;		None
  4581 ;; Auto vars:     Size  Location     Type
  4582 ;;		None
  4583 ;; Return value:  Size  Location     Type
  4584 ;;                  1    wreg      void 
  4585 ;; Registers used:
  4586 ;;		wreg, status,2, status,0, cstack
  4587 ;; Tracked objects:
  4588 ;;		On entry : 0/0
  4589 ;;		On exit  : 0/0
  4590 ;;		Unchanged: 0/0
  4591 ;; Data sizes:     COMRAM   BANK0   BANK1   BANK2   BANK3   BANK4   BANK5
  4592 ;;      Params:         0       0       0       0       0       0       0
  4593 ;;      Locals:         0       0       0       0       0       0       0
  4594 ;;      Temps:          0       0       0       0       0       0       0
  4595 ;;      Totals:         0       0       0       0       0       0       0
  4596 ;;Total ram usage:        0 bytes
  4597 ;; Hardware stack levels used:    1
  4598 ;; Hardware stack levels required when called:    2
  4599 ;; This function calls:
  4600 ;;		_atraso_ms
  4601 ;;		_lcd_cmd
  4602 ;; This function is called by:
  4603 ;;		_main
  4604 ;; This function uses a non-reentrant model
  4605 ;;
  4606                           
  4607                           	psect	text11
  4608  0061C8                     __ptext11:
  4609                           	callstack 0
  4610  0061C8                     _lcd_init:
  4611                           	callstack 28
  4612  0061C8                     
  4613                           ;lcd.c: 30:     (((*(volatile __near unsigned char*)0xF84)) &= ~(1<<1));
  4614  0061C8  9284               	bcf	132,1,c	;volatile
  4615                           
  4616                           ;lcd.c: 31:     (((*(volatile __near unsigned char*)0xF84)) &= ~(1<<2));
  4617  0061CA  9484               	bcf	132,2,c	;volatile
  4618  0061CC                     
  4619                           ;lcd.c: 32:     atraso_ms(20);
  4620  0061CC  0E00               	movlw	0
  4621  0061CE  6E08               	movwf	(atraso_ms@t+1)^0,c
  4622  0061D0  0E14               	movlw	20
  4623  0061D2  6E07               	movwf	atraso_ms@t^0,c
  4624  0061D4  EC40  F031         	call	_atraso_ms	;wreg free
  4625  0061D8                     
  4626                           ;lcd.c: 33:     (((*(volatile __near unsigned char*)0xF84)) |= (1<<1));
  4627  0061D8  8284               	bsf	132,1,c	;volatile
  4628                           
  4629                           ;lcd.c: 35:     lcd_cmd(0x38);
  4630  0061DA  0E38               	movlw	56
  4631  0061DC  EC42  F030         	call	_lcd_cmd
  4632                           
  4633                           ;lcd.c: 36:     atraso_ms(5);
  4634  0061E0  0E00               	movlw	0
  4635  0061E2  6E08               	movwf	(atraso_ms@t+1)^0,c
  4636  0061E4  0E05               	movlw	5
  4637  0061E6  6E07               	movwf	atraso_ms@t^0,c
  4638  0061E8  EC40  F031         	call	_atraso_ms	;wreg free
  4639                           
  4640                           ;lcd.c: 37:     lcd_cmd(0x38);
  4641  0061EC  0E38               	movlw	56
  4642  0061EE  EC42  F030         	call	_lcd_cmd
  4643                           
  4644                           ;lcd.c: 38:     atraso_ms(1);
  4645  0061F2  0E00               	movlw	0
  4646  0061F4  6E08               	movwf	(atraso_ms@t+1)^0,c
  4647  0061F6  0E01               	movlw	1
  4648  0061F8  6E07               	movwf	atraso_ms@t^0,c
  4649  0061FA  EC40  F031         	call	_atraso_ms	;wreg free
  4650                           
  4651                           ;lcd.c: 39:     lcd_cmd(0x38);
  4652  0061FE  0E38               	movlw	56
  4653  006200  EC42  F030         	call	_lcd_cmd
  4654                           
  4655                           ;lcd.c: 40:     lcd_cmd(0x08);
  4656  006204  0E08               	movlw	8
  4657  006206  EC42  F030         	call	_lcd_cmd
  4658                           
  4659                           ;lcd.c: 41:     lcd_cmd(0x0F);
  4660  00620A  0E0F               	movlw	15
  4661  00620C  EC42  F030         	call	_lcd_cmd
  4662                           
  4663                           ;lcd.c: 42:     lcd_cmd(0x01);
  4664  006210  0E01               	movlw	1
  4665  006212  EC42  F030         	call	_lcd_cmd
  4666                           
  4667                           ;lcd.c: 43:     lcd_cmd(0x38);
  4668  006216  0E38               	movlw	56
  4669  006218  EC42  F030         	call	_lcd_cmd
  4670                           
  4671                           ;lcd.c: 44:     lcd_cmd(0x80);
  4672  00621C  0E80               	movlw	128
  4673  00621E  EC42  F030         	call	_lcd_cmd
  4674  006222  0012               	return		;funcret
  4675  006224                     __end_of_lcd_init:
  4676                           	callstack 0
  4677                           
  4678 ;; *************** function _init *****************
  4679 ;; Defined at:
  4680 ;;		line 289 in file "main.c"
  4681 ;; Parameters:    Size  Location     Type
  4682 ;;		None
  4683 ;; Auto vars:     Size  Location     Type
  4684 ;;		None
  4685 ;; Return value:  Size  Location     Type
  4686 ;;                  1    wreg      void 
  4687 ;; Registers used:
  4688 ;;		wreg, fsr0l, fsr0h, fsr2l, fsr2h, status,2, status,0, tblptrl, tblptrh, tblptru, cstack
  4689 ;; Tracked objects:
  4690 ;;		On entry : 0/0
  4691 ;;		On exit  : 0/0
  4692 ;;		Unchanged: 0/0
  4693 ;; Data sizes:     COMRAM   BANK0   BANK1   BANK2   BANK3   BANK4   BANK5
  4694 ;;      Params:         0       0       0       0       0       0       0
  4695 ;;      Locals:         0       0       0       0       0       0       0
  4696 ;;      Temps:          0       0       0       0       0       0       0
  4697 ;;      Totals:         0       0       0       0       0       0       0
  4698 ;;Total ram usage:        0 bytes
  4699 ;; Hardware stack levels used:    1
  4700 ;; Hardware stack levels required when called:    4
  4701 ;; This function calls:
  4702 ;;		_atraso_ms
  4703 ;;		_fatos
  4704 ;;		_lcd_cmd
  4705 ;;		_lcd_str
  4706 ;; This function is called by:
  4707 ;;		_main
  4708 ;; This function uses a non-reentrant model
  4709 ;;
  4710                           
  4711                           	psect	text12
  4712  0062E4                     __ptext12:
  4713                           	callstack 0
  4714  0062E4                     _init:
  4715                           	callstack 26
  4716  0062E4                     
  4717                           ;main.c: 290:     lcd_cmd(0xC0);
  4718  0062E4  0EC0               	movlw	192
  4719  0062E6  EC42  F030         	call	_lcd_cmd
  4720  0062EA                     
  4721                           ;main.c: 291:     lcd_str("      Bem");
  4722  0062EA  0EEB               	movlw	low STR_39
  4723  0062EC  6E0E               	movwf	lcd_str@str^0,c
  4724  0062EE  0E7F               	movlw	high STR_39
  4725  0062F0  6E0F               	movwf	(lcd_str@str+1)^0,c
  4726  0062F2  EC17  F032         	call	_lcd_str	;wreg free
  4727  0062F6                     
  4728                           ;main.c: 292:     lcd_cmd(0x90);
  4729  0062F6  0E90               	movlw	144
  4730  0062F8  EC42  F030         	call	_lcd_cmd
  4731                           
  4732                           ;main.c: 293:     lcd_str("     Vindo");
  4733  0062FC  0ED5               	movlw	low STR_40
  4734  0062FE  6E0E               	movwf	lcd_str@str^0,c
  4735  006300  0E7F               	movlw	high STR_40
  4736  006302  6E0F               	movwf	(lcd_str@str+1)^0,c
  4737  006304  EC17  F032         	call	_lcd_str	;wreg free
  4738  006308                     
  4739                           ;main.c: 294:     atraso_ms(atrasoMax);
  4740  006308  C07D  F007         	movff	_atrasoMax,atraso_ms@t
  4741  00630C  C07E  F008         	movff	_atrasoMax+1,atraso_ms@t+1
  4742  006310  EC40  F031         	call	_atraso_ms	;wreg free
  4743  006314                     
  4744                           ;main.c: 296:     fatos("Esta e a linha  do tempo dos    ultimos 100 anosdo Brasil");
  4745  006314  0E78               	movlw	low STR_41
  4746  006316  6E13               	movwf	fatos@str^0,c
  4747  006318  0E7B               	movlw	high STR_41
  4748  00631A  6E14               	movwf	(fatos@str+1)^0,c
  4749  00631C  EC82  F039         	call	_fatos	;wreg free
  4750  006320                     
  4751                           ;main.c: 297:     atraso_ms(atrasoMax * 2);
  4752  006320  90D8               	bcf	status,0,c
  4753  006322  347D               	rlcf	_atrasoMax^0,w,c
  4754  006324  6E07               	movwf	atraso_ms@t^0,c
  4755  006326  347E               	rlcf	(_atrasoMax+1)^0,w,c
  4756  006328  6E08               	movwf	(atraso_ms@t+1)^0,c
  4757  00632A  EC40  F031         	call	_atraso_ms	;wreg free
  4758  00632E                     
  4759                           ;main.c: 299:     lcd_cmd(0x01);
  4760  00632E  0E01               	movlw	1
  4761  006330  EC42  F030         	call	_lcd_cmd
  4762  006334                     
  4763                           ;main.c: 300:     lcd_cmd(0x80);
  4764  006334  0E80               	movlw	128
  4765  006336  EC42  F030         	call	_lcd_cmd
  4766  00633A                     
  4767                           ;main.c: 301:     lcd_str("Insira o Ano:");
  4768  00633A  0EC7               	movlw	low STR_42
  4769  00633C  6E0E               	movwf	lcd_str@str^0,c
  4770  00633E  0E7F               	movlw	high STR_42
  4771  006340  6E0F               	movwf	(lcd_str@str+1)^0,c
  4772  006342  EC17  F032         	call	_lcd_str	;wreg free
  4773  006346                     
  4774                           ;main.c: 302:     lcd_cmd(0xC0);
  4775  006346  0EC0               	movlw	192
  4776  006348  EC42  F030         	call	_lcd_cmd
  4777  00634C  0012               	return		;funcret
  4778  00634E                     __end_of_init:
  4779                           	callstack 0
  4780                           
  4781 ;; *************** function _bancoDados *****************
  4782 ;; Defined at:
  4783 ;;		line 156 in file "main.c"
  4784 ;; Parameters:    Size  Location     Type
  4785 ;;  ano             2   96[COMRAM] int 
  4786 ;; Auto vars:     Size  Location     Type
  4787 ;;  a               2  100[COMRAM] int 
  4788 ;; Return value:  Size  Location     Type
  4789 ;;                  1    wreg      void 
  4790 ;; Registers used:
  4791 ;;		wreg, fsr0l, fsr0h, fsr2l, fsr2h, status,2, status,0, tblptrl, tblptrh, tblptru, prodl, prodh, cstack
  4792 ;; Tracked objects:
  4793 ;;		On entry : 0/0
  4794 ;;		On exit  : 0/0
  4795 ;;		Unchanged: 0/0
  4796 ;; Data sizes:     COMRAM   BANK0   BANK1   BANK2   BANK3   BANK4   BANK5
  4797 ;;      Params:         2       0       0       0       0       0       0
  4798 ;;      Locals:         2       0       0       0       0       0       0
  4799 ;;      Temps:          2       0       0       0       0       0       0
  4800 ;;      Totals:         6       0       0       0       0       0       0
  4801 ;;Total ram usage:        6 bytes
  4802 ;; Hardware stack levels used:    1
  4803 ;; Hardware stack levels required when called:    4
  4804 ;; This function calls:
  4805 ;;		___wmul
  4806 ;;		_atraso_ms
  4807 ;;		_fatos
  4808 ;;		_verificaAno
  4809 ;; This function is called by:
  4810 ;;		_main
  4811 ;; This function uses a non-reentrant model
  4812 ;;
  4813                           
  4814                           	psect	text13
  4815  00755C                     __ptext13:
  4816                           	callstack 0
  4817  00755C                     _bancoDados:
  4818                           	callstack 26
  4819  00755C                     
  4820                           ;main.c: 157:     int a = verificaAno(ano);
  4821  00755C  C061  F001         	movff	bancoDados@ano,verificaAno@ano
  4822  007560  C062  F002         	movff	bancoDados@ano+1,verificaAno@ano+1
  4823  007564  EC9B  F033         	call	_verificaAno	;wreg free
  4824  007568  C001  F065         	movff	?_verificaAno,bancoDados@a
  4825  00756C  C002  F066         	movff	?_verificaAno+1,bancoDados@a+1
  4826  007570                     
  4827                           ;main.c: 158:     fatos("                                                               
      +                                                             ");
  4828  007570  0E71               	movlw	low STR_1
  4829  007572  6E13               	movwf	fatos@str^0,c
  4830  007574  0E79               	movlw	high STR_1
  4831  007576  6E14               	movwf	(fatos@str+1)^0,c
  4832  007578  EC82  F039         	call	_fatos	;wreg free
  4833                           
  4834                           ;main.c: 159:     switch (a) {
  4835  00757C  EF37  F03C         	goto	l2474
  4836  007580                     l2338:
  4837                           
  4838                           ;main.c: 161:             fatos("Fundacao do partido comunista do brasil");
  4839  007580  0EF4               	movlw	low STR_2
  4840  007582  6E13               	movwf	fatos@str^0,c
  4841  007584  0E7C               	movlw	high STR_2
  4842  007586  6E14               	movwf	(fatos@str+1)^0,c
  4843  007588  EC82  F039         	call	_fatos	;wreg free
  4844  00758C                     l2340:
  4845                           
  4846                           ;main.c: 162:             atraso_ms(atrasoMax);
  4847  00758C  C07D  F007         	movff	_atrasoMax,atraso_ms@t
  4848  007590  C07E  F008         	movff	_atrasoMax+1,atraso_ms@t+1
  4849  007594  EC40  F031         	call	_atraso_ms	;wreg free
  4850                           
  4851                           ;main.c: 163:             break;
  4852  007598  EFAD  F03C         	goto	l109
  4853  00759C                     l2342:
  4854                           
  4855                           ;main.c: 165:             fatos("Quebra da bolsa de valores de NY");
  4856  00759C  0EAB               	movlw	low STR_3
  4857  00759E  6E13               	movwf	fatos@str^0,c
  4858  0075A0  0E7D               	movlw	high STR_3
  4859  0075A2  6E14               	movwf	(fatos@str+1)^0,c
  4860  0075A4  EC82  F039         	call	_fatos	;wreg free
  4861  0075A8  EFC6  F03A         	goto	l2340
  4862  0075AC                     l2346:
  4863                           
  4864                           ;main.c: 169:             fatos("Inicio da Era Vargas");
  4865  0075AC  0E49               	movlw	low STR_4
  4866  0075AE  6E13               	movwf	fatos@str^0,c
  4867  0075B0  0E7F               	movlw	high STR_4
  4868  0075B2  6E14               	movwf	(fatos@str+1)^0,c
  4869  0075B4  EC82  F039         	call	_fatos	;wreg free
  4870  0075B8  EFC6  F03A         	goto	l2340
  4871  0075BC                     l2350:
  4872                           
  4873                           ;main.c: 173:             fatos("Revolucao constitucionalista em Sao Paulo");
  4874  0075BC  0ECA               	movlw	low STR_5
  4875  0075BE  6E13               	movwf	fatos@str^0,c
  4876  0075C0  0E7C               	movlw	high STR_5
  4877  0075C2  6E14               	movwf	(fatos@str+1)^0,c
  4878  0075C4  EC82  F039         	call	_fatos	;wreg free
  4879  0075C8  EFC6  F03A         	goto	l2340
  4880  0075CC                     l2354:
  4881                           
  4882                           ;main.c: 177:             fatos("Promulgada a    Constituicao de 1934");
  4883  0075CC  0E42               	movlw	low STR_6
  4884  0075CE  6E13               	movwf	fatos@str^0,c
  4885  0075D0  0E7D               	movlw	high STR_6
  4886  0075D2  6E14               	movwf	(fatos@str+1)^0,c
  4887  0075D4  EC82  F039         	call	_fatos	;wreg free
  4888  0075D8  EFC6  F03A         	goto	l2340
  4889  0075DC                     l2358:
  4890                           
  4891                           ;main.c: 181:             fatos("Implantacao do Estado Novo");
  4892  0075DC  0E67               	movlw	low STR_7
  4893  0075DE  6E13               	movwf	fatos@str^0,c
  4894  0075E0  0E7E               	movlw	high STR_7
  4895  0075E2  6E14               	movwf	(fatos@str+1)^0,c
  4896  0075E4  EC82  F039         	call	_fatos	;wreg free
  4897  0075E8  EFC6  F03A         	goto	l2340
  4898  0075EC                     l2362:
  4899                           
  4900                           ;main.c: 185:             fatos("Inicio da segunda guerra mundial");
  4901  0075EC  0ECC               	movlw	low STR_8
  4902  0075EE  6E13               	movwf	fatos@str^0,c
  4903  0075F0  0E7D               	movlw	high STR_8
  4904  0075F2  6E14               	movwf	(fatos@str+1)^0,c
  4905  0075F4  EC82  F039         	call	_fatos	;wreg free
  4906  0075F8  EFC6  F03A         	goto	l2340
  4907  0075FC                     l2366:
  4908                           
  4909                           ;main.c: 189:             fatos("Instituicao do salario minimo");
  4910  0075FC  0E2C               	movlw	low STR_9
  4911  0075FE  6E13               	movwf	fatos@str^0,c
  4912  007600  0E7E               	movlw	high STR_9
  4913  007602  6E14               	movwf	(fatos@str+1)^0,c
  4914  007604  EC82  F039         	call	_fatos	;wreg free
  4915  007608  EFC6  F03A         	goto	l2340
  4916  00760C                     l2370:
  4917                           
  4918                           ;main.c: 193:             fatos("Fundacao da ONU  ");
  4919  00760C  0E87               	movlw	low STR_10
  4920  00760E  6E13               	movwf	fatos@str^0,c
  4921  007610  0E7F               	movlw	high STR_10
  4922  007612  6E14               	movwf	(fatos@str+1)^0,c
  4923  007614  EC82  F039         	call	_fatos	;wreg free
  4924  007618                     
  4925                           ;main.c: 194:             atraso_ms(atrasoMax);
  4926  007618  C07D  F007         	movff	_atrasoMax,atraso_ms@t
  4927  00761C  C07E  F008         	movff	_atrasoMax+1,atraso_ms@t+1
  4928  007620  EC40  F031         	call	_atraso_ms	;wreg free
  4929  007624                     
  4930                           ;main.c: 195:             fatos("Fim da Era      Vargas");
  4931  007624  0E32               	movlw	low STR_11
  4932  007626  6E13               	movwf	fatos@str^0,c
  4933  007628  0E7F               	movlw	high STR_11
  4934  00762A  6E14               	movwf	(fatos@str+1)^0,c
  4935  00762C  EC82  F039         	call	_fatos	;wreg free
  4936                           
  4937                           ;main.c: 196:             atraso_ms(atrasoMax);
  4938  007630  C07D  F007         	movff	_atrasoMax,atraso_ms@t
  4939  007634  C07E  F008         	movff	_atrasoMax+1,atraso_ms@t+1
  4940  007638  EC40  F031         	call	_atraso_ms	;wreg free
  4941  00763C                     
  4942                           ;main.c: 197:             fatos("Fim da segunda  guerra");
  4943  00763C  0E1B               	movlw	low STR_12
  4944  00763E  6E13               	movwf	fatos@str^0,c
  4945  007640  0E7F               	movlw	high STR_12
  4946  007642  6E14               	movwf	(fatos@str+1)^0,c
  4947  007644  EC82  F039         	call	_fatos	;wreg free
  4948  007648                     
  4949                           ;main.c: 198:             atraso_ms(atrasoMax);
  4950  007648  C07D  F007         	movff	_atrasoMax,atraso_ms@t
  4951  00764C  C07E  F008         	movff	_atrasoMax+1,atraso_ms@t+1
  4952  007650  EC40  F031         	call	_atraso_ms	;wreg free
  4953                           
  4954                           ;main.c: 199:             fatos("Redemocratizacaodo Brasil");
  4955  007654  0E9C               	movlw	low STR_13
  4956  007656  6E13               	movwf	fatos@str^0,c
  4957  007658  0E7E               	movlw	high STR_13
  4958  00765A  6E14               	movwf	(fatos@str+1)^0,c
  4959  00765C  EC82  F039         	call	_fatos	;wreg free
  4960                           
  4961                           ;main.c: 200:             break;
  4962  007660  EFAD  F03C         	goto	l109
  4963  007664                     l2380:
  4964                           
  4965                           ;main.c: 202:             fatos("Criacao da Petrobras");
  4966  007664  0E5E               	movlw	low STR_14
  4967  007666  6E13               	movwf	fatos@str^0,c
  4968  007668  0E7F               	movlw	high STR_14
  4969  00766A  6E14               	movwf	(fatos@str+1)^0,c
  4970  00766C  EC82  F039         	call	_fatos	;wreg free
  4971  007670  EFC6  F03A         	goto	l2340
  4972  007674                     l2384:
  4973                           
  4974                           ;main.c: 206:             fatos("Suicido de Getulio Vargas");
  4975  007674  0ED0               	movlw	low STR_15
  4976  007676  6E13               	movwf	fatos@str^0,c
  4977  007678  0E7E               	movlw	high STR_15
  4978  00767A  6E14               	movwf	(fatos@str+1)^0,c
  4979  00767C  EC82  F039         	call	_fatos	;wreg free
  4980  007680  EFC6  F03A         	goto	l2340
  4981  007684                     l2388:
  4982                           
  4983                           ;main.c: 210:             fatos("Brasilia inaugurada por Juscelino Kubitscheck");
  4984  007684  0E72               	movlw	low STR_16
  4985  007686  6E13               	movwf	fatos@str^0,c
  4986  007688  0E7C               	movlw	high STR_16
  4987  00768A  6E14               	movwf	(fatos@str+1)^0,c
  4988  00768C  EC82  F039         	call	_fatos	;wreg free
  4989  007690  EFC6  F03A         	goto	l2340
  4990  007694                     l2392:
  4991                           
  4992                           ;main.c: 214:             fatos("Inicio ditaduta militar no brasil");
  4993  007694  0E67               	movlw	low STR_17
  4994  007696  6E13               	movwf	fatos@str^0,c
  4995  007698  0E7D               	movlw	high STR_17
  4996  00769A  6E14               	movwf	(fatos@str+1)^0,c
  4997  00769C  EC82  F039         	call	_fatos	;wreg free
  4998  0076A0                     
  4999                           ;main.c: 215:             atraso_ms(atrasoMed);
  5000  0076A0  0E00               	movlw	0
  5001  0076A2  6E08               	movwf	(atraso_ms@t+1)^0,c
  5002  0076A4  0E96               	movlw	150
  5003  0076A6  6E07               	movwf	atraso_ms@t^0,c
  5004  0076A8  EC40  F031         	call	_atraso_ms	;wreg free
  5005  0076AC                     
  5006                           ;main.c: 216:             fatos("Centenas de denuncias de casos de tortura");
  5007  0076AC  0EA0               	movlw	low STR_18
  5008  0076AE  6E13               	movwf	fatos@str^0,c
  5009  0076B0  0E7C               	movlw	high STR_18
  5010  0076B2  6E14               	movwf	(fatos@str+1)^0,c
  5011  0076B4  EC82  F039         	call	_fatos	;wreg free
  5012                           
  5013                           ;main.c: 217:             break;
  5014  0076B8  EFAD  F03C         	goto	l109
  5015  0076BC                     l2398:
  5016                           
  5017                           ;main.c: 219:             fatos("Constituicao da ditatura militar");
  5018  0076BC  0EED               	movlw	low STR_19
  5019  0076BE  6E13               	movwf	fatos@str^0,c
  5020  0076C0  0E7D               	movlw	high STR_19
  5021  0076C2  6E14               	movwf	(fatos@str+1)^0,c
  5022  0076C4  EC82  F039         	call	_fatos	;wreg free
  5023  0076C8  EFC6  F03A         	goto	l2340
  5024  0076CC                     l2402:
  5025                           
  5026                           ;main.c: 223:             fatos("Implantacao do AI-5");
  5027  0076CC  0E73               	movlw	low STR_20
  5028  0076CE  6E13               	movwf	fatos@str^0,c
  5029  0076D0  0E7F               	movlw	high STR_20
  5030  0076D2  6E14               	movwf	(fatos@str+1)^0,c
  5031  0076D4  EC82  F039         	call	_fatos	;wreg free
  5032  0076D8  EFC6  F03A         	goto	l2340
  5033  0076DC                     l2406:
  5034                           
  5035                           ;main.c: 227:             fatos("Milagre enconomico, crescimento em 11,2 por cento");
  5036  0076DC  0EB2               	movlw	low STR_21
  5037  0076DE  6E13               	movwf	fatos@str^0,c
  5038  0076E0  0E7B               	movlw	high STR_21
  5039  0076E2  6E14               	movwf	(fatos@str+1)^0,c
  5040  0076E4  EC82  F039         	call	_fatos	;wreg free
  5041  0076E8  EFC6  F03A         	goto	l2340
  5042  0076EC                     l2410:
  5043                           
  5044                           ;main.c: 231:             fatos("Revogacao do AI-5 e de outros atos da ditadura");
  5045  0076EC  0E14               	movlw	low STR_22
  5046  0076EE  6E13               	movwf	fatos@str^0,c
  5047  0076F0  0E7C               	movlw	high STR_22
  5048  0076F2  6E14               	movwf	(fatos@str+1)^0,c
  5049  0076F4  EC82  F039         	call	_fatos	;wreg free
  5050  0076F8  EFC6  F03A         	goto	l2340
  5051  0076FC                     l2414:
  5052                           
  5053                           ;main.c: 235:             fatos("Fim da ditadura militar");
  5054  0076FC  0E03               	movlw	low STR_23
  5055  0076FE  6E13               	movwf	fatos@str^0,c
  5056  007700  0E7F               	movlw	high STR_23
  5057  007702  6E14               	movwf	(fatos@str+1)^0,c
  5058  007704  EC82  F039         	call	_fatos	;wreg free
  5059  007708  EFC6  F03A         	goto	l2340
  5060  00770C                     l2418:
  5061                           
  5062                           ;main.c: 239:             fatos("Collor eleito presidente");
  5063  00770C  0EEA               	movlw	low STR_24
  5064  00770E  6E13               	movwf	fatos@str^0,c
  5065  007710  0E7E               	movlw	high STR_24
  5066  007712  6E14               	movwf	(fatos@str+1)^0,c
  5067  007714  EC82  F039         	call	_fatos	;wreg free
  5068  007718  EFC6  F03A         	goto	l2340
  5069  00771C                     l2422:
  5070                           
  5071                           ;main.c: 243:             fatos("Congelamento de contas por Collor");
  5072  00771C  0E89               	movlw	low STR_25
  5073  00771E  6E13               	movwf	fatos@str^0,c
  5074  007720  0E7D               	movlw	high STR_25
  5075  007722  6E14               	movwf	(fatos@str+1)^0,c
  5076  007724  EC82  F039         	call	_fatos	;wreg free
  5077  007728  EFC6  F03A         	goto	l2340
  5078  00772C                     l2426:
  5079                           
  5080                           ;main.c: 248:             fatos("Brasil ganha a copa do mundo");
  5081  00772C  0E4A               	movlw	low STR_26
  5082  00772E  6E13               	movwf	fatos@str^0,c
  5083  007730  0E7E               	movlw	high STR_26
  5084  007732  6E14               	movwf	(fatos@str+1)^0,c
  5085  007734  EC82  F039         	call	_fatos	;wreg free
  5086  007738                     
  5087                           ;main.c: 249:             atraso_ms(atrasoMax);
  5088  007738  C07D  F007         	movff	_atrasoMax,atraso_ms@t
  5089  00773C  C07E  F008         	movff	_atrasoMax+1,atraso_ms@t+1
  5090  007740  EC40  F031         	call	_atraso_ms	;wreg free
  5091  007744                     
  5092                           ;main.c: 250:             fatos("Lula é eleito presidente da República");
  5093  007744  0E1C               	movlw	low STR_27
  5094  007746  6E13               	movwf	fatos@str^0,c
  5095  007748  0E7D               	movlw	high STR_27
  5096  00774A  6E14               	movwf	(fatos@str+1)^0,c
  5097  00774C  EC82  F039         	call	_fatos	;wreg free
  5098                           
  5099                           ;main.c: 251:             break;
  5100  007750  EFAD  F03C         	goto	l109
  5101  007754                     l2432:
  5102                           
  5103                           ;main.c: 254:             fatos("Eleicao de Dilma Rousseff");
  5104  007754  0E82               	movlw	low STR_28
  5105  007756  6E13               	movwf	fatos@str^0,c
  5106  007758  0E7E               	movlw	high STR_28
  5107  00775A  6E14               	movwf	(fatos@str+1)^0,c
  5108  00775C  EC82  F039         	call	_fatos	;wreg free
  5109  007760  EFC6  F03A         	goto	l2340
  5110  007764                     l2436:
  5111                           
  5112                           ;main.c: 259:             fatos("Impeachment de Dilma Rousseff");
  5113  007764  0E0E               	movlw	low STR_29
  5114  007766  6E13               	movwf	fatos@str^0,c
  5115  007768  0E7E               	movlw	high STR_29
  5116  00776A  6E14               	movwf	(fatos@str+1)^0,c
  5117  00776C  EC82  F039         	call	_fatos	;wreg free
  5118  007770  EFC6  F03A         	goto	l2340
  5119  007774                     l2440:
  5120                           
  5121                           ;main.c: 264:             fatos("Eleicao de Jair Bolsonaro");
  5122  007774  0EB6               	movlw	low STR_30
  5123  007776  6E13               	movwf	fatos@str^0,c
  5124  007778  0E7E               	movlw	high STR_30
  5125  00777A  6E14               	movwf	(fatos@str+1)^0,c
  5126  00777C  EC82  F039         	call	_fatos	;wreg free
  5127  007780  EFC6  F03A         	goto	l2340
  5128  007784                     l2444:
  5129                           
  5130                           ;main.c: 268:             fatos("Casos de        intoxicacao pelacerveja Backer");
  5131  007784  0E43               	movlw	low STR_31
  5132  007786  6E13               	movwf	fatos@str^0,c
  5133  007788  0E7C               	movlw	high STR_31
  5134  00778A  6E14               	movwf	(fatos@str+1)^0,c
  5135  00778C  EC82  F039         	call	_fatos	;wreg free
  5136  007790                     
  5137                           ;main.c: 269:             atraso_ms(atrasoMax);
  5138  007790  C07D  F007         	movff	_atrasoMax,atraso_ms@t
  5139  007794  C07E  F008         	movff	_atrasoMax+1,atraso_ms@t+1
  5140  007798  EC40  F031         	call	_atraso_ms	;wreg free
  5141  00779C                     
  5142                           ;main.c: 270:             fatos("Instabilidade nogoverno, saude  e educacao     ");
  5143  00779C  0EE4               	movlw	low STR_32
  5144  00779E  6E13               	movwf	fatos@str^0,c
  5145  0077A0  0E7B               	movlw	high STR_32
  5146  0077A2  6E14               	movwf	(fatos@str+1)^0,c
  5147  0077A4  EC82  F039         	call	_fatos	;wreg free
  5148                           
  5149                           ;main.c: 271:             atraso_ms(atrasoMax);
  5150  0077A8  C07D  F007         	movff	_atrasoMax,atraso_ms@t
  5151  0077AC  C07E  F008         	movff	_atrasoMax+1,atraso_ms@t+1
  5152  0077B0  EC40  F031         	call	_atraso_ms	;wreg free
  5153  0077B4                     
  5154                           ;main.c: 272:             fatos("Casos de corona virus no Brasil com mais de     500000 
      +                          mortes");
  5155  0077B4  0ED4               	movlw	low STR_33
  5156  0077B6  6E13               	movwf	fatos@str^0,c
  5157  0077B8  0E79               	movlw	high STR_33
  5158  0077BA  6E14               	movwf	(fatos@str+1)^0,c
  5159  0077BC  EC82  F039         	call	_fatos	;wreg free
  5160                           
  5161                           ;main.c: 273:             break;
  5162  0077C0  EFAD  F03C         	goto	l109
  5163  0077C4                     l2452:
  5164                           
  5165                           ;main.c: 275:             fatos("Lancamento do   primeiro satelite totalmente    brasile
      +                          iro");
  5166  0077C4  0E3D               	movlw	low STR_34
  5167  0077C6  6E13               	movwf	fatos@str^0,c
  5168  0077C8  0E7B               	movlw	high STR_34
  5169  0077CA  6E14               	movwf	(fatos@str+1)^0,c
  5170  0077CC  EC82  F039         	call	_fatos	;wreg free
  5171  0077D0                     
  5172                           ;main.c: 276:             atraso_ms(atrasoMax * 3);
  5173  0077D0  C07D  F001         	movff	_atrasoMax,___wmul@multiplier
  5174  0077D4  C07E  F002         	movff	_atrasoMax+1,___wmul@multiplier+1
  5175  0077D8  0E00               	movlw	0
  5176  0077DA  6E04               	movwf	(___wmul@multiplicand+1)^0,c
  5177  0077DC  0E03               	movlw	3
  5178  0077DE  6E03               	movwf	___wmul@multiplicand^0,c
  5179  0077E0  EC1A  F030         	call	___wmul	;wreg free
  5180  0077E4  C001  F007         	movff	?___wmul,atraso_ms@t
  5181  0077E8  C002  F008         	movff	?___wmul+1,atraso_ms@t+1
  5182  0077EC  EC40  F031         	call	_atraso_ms	;wreg free
  5183  0077F0                     
  5184                           ;main.c: 277:             fatos("Crise sanitaria e governamental                        
      +                             ");
  5185  0077F0  0EC7               	movlw	low STR_35
  5186  0077F2  6E13               	movwf	fatos@str^0,c
  5187  0077F4  0E7A               	movlw	high STR_35
  5188  0077F6  6E14               	movwf	(fatos@str+1)^0,c
  5189  0077F8  EC82  F039         	call	_fatos	;wreg free
  5190  0077FC                     
  5191                           ;main.c: 278:             atraso_ms(atrasoMax * 2);
  5192  0077FC  90D8               	bcf	status,0,c
  5193  0077FE  347D               	rlcf	_atrasoMax^0,w,c
  5194  007800  6E07               	movwf	atraso_ms@t^0,c
  5195  007802  347E               	rlcf	(_atrasoMax+1)^0,w,c
  5196  007804  6E08               	movwf	(atraso_ms@t+1)^0,c
  5197  007806  EC40  F031         	call	_atraso_ms	;wreg free
  5198  00780A                     
  5199                           ;main.c: 279:             fatos("inicio da       vacinacao no    Brasil                 
      +                              ");
  5200  00780A  0E8B               	movlw	low STR_36
  5201  00780C  6E13               	movwf	fatos@str^0,c
  5202  00780E  0E7A               	movlw	high STR_36
  5203  007810  6E14               	movwf	(fatos@str+1)^0,c
  5204  007812  EC82  F039         	call	_fatos	;wreg free
  5205  007816                     
  5206                           ;main.c: 280:             atraso_ms(atrasoMax * 2);
  5207  007816  90D8               	bcf	status,0,c
  5208  007818  347D               	rlcf	_atrasoMax^0,w,c
  5209  00781A  6E07               	movwf	atraso_ms@t^0,c
  5210  00781C  347E               	rlcf	(_atrasoMax+1)^0,w,c
  5211  00781E  6E08               	movwf	(atraso_ms@t+1)^0,c
  5212  007820  EC40  F031         	call	_atraso_ms	;wreg free
  5213  007824                     
  5214                           ;main.c: 281:             fatos("Chacina em      favela no RJ                           
      +                              ");
  5215  007824  0E4F               	movlw	low STR_37
  5216  007826  6E13               	movwf	fatos@str^0,c
  5217  007828  0E7A               	movlw	high STR_37
  5218  00782A  6E14               	movwf	(fatos@str+1)^0,c
  5219  00782C  EC82  F039         	call	_fatos	;wreg free
  5220  007830                     
  5221                           ;main.c: 282:             atraso_ms(atrasoMax * 2);
  5222  007830  90D8               	bcf	status,0,c
  5223  007832  347D               	rlcf	_atrasoMax^0,w,c
  5224  007834  6E07               	movwf	atraso_ms@t^0,c
  5225  007836  347E               	rlcf	(_atrasoMax+1)^0,w,c
  5226  007838  6E08               	movwf	(atraso_ms@t+1)^0,c
  5227  00783A  EC40  F031         	call	_atraso_ms	;wreg free
  5228  00783E                     
  5229                           ;main.c: 283:             fatos("Serial killer   procurado       durante 20 dias foi mor
      +                          to ");
  5230  00783E  0E02               	movlw	low STR_38
  5231  007840  6E13               	movwf	fatos@str^0,c
  5232  007842  0E7B               	movlw	high STR_38
  5233  007844  6E14               	movwf	(fatos@str+1)^0,c
  5234  007846  EC82  F039         	call	_fatos	;wreg free
  5235  00784A                     
  5236                           ;main.c: 284:             atraso_ms(atrasoMax * 3);
  5237  00784A  C07D  F001         	movff	_atrasoMax,___wmul@multiplier
  5238  00784E  C07E  F002         	movff	_atrasoMax+1,___wmul@multiplier+1
  5239  007852  0E00               	movlw	0
  5240  007854  6E04               	movwf	(___wmul@multiplicand+1)^0,c
  5241  007856  0E03               	movlw	3
  5242  007858  6E03               	movwf	___wmul@multiplicand^0,c
  5243  00785A  EC1A  F030         	call	___wmul	;wreg free
  5244  00785E  C001  F007         	movff	?___wmul,atraso_ms@t
  5245  007862  C002  F008         	movff	?___wmul+1,atraso_ms@t+1
  5246  007866  EC40  F031         	call	_atraso_ms	;wreg free
  5247                           
  5248                           ;main.c: 285:             break;
  5249  00786A  EFAD  F03C         	goto	l109
  5250  00786E                     l2474:
  5251  00786E  C065  F063         	movff	bancoDados@a,??_bancoDados
  5252  007872  C066  F064         	movff	bancoDados@a+1,??_bancoDados+1
  5253                           
  5254                           ; Switch on 2 bytes has been partitioned into a top level switch of size 1, and 1 sub-sw
      +                          itches
  5255                           ; Switch size 1, requested type "simple"
  5256                           ; Number of cases is 1, Range of values is 7 to 7
  5257                           ; switch strategies available:
  5258                           ; Name         Instructions Cycles
  5259                           ; simple_byte            4     3 (average)
  5260                           ;	Chosen strategy is simple_byte
  5261  007876  5064               	movf	(??_bancoDados+1)^0,w,c
  5262  007878  0A07               	xorlw	7	; case 7
  5263  00787A  B4D8               	btfsc	status,2,c
  5264  00787C  EF42  F03C         	goto	l2816
  5265  007880  EFAD  F03C         	goto	l109
  5266  007884                     l2816:
  5267                           
  5268                           ; Switch size 1, requested type "simple"
  5269                           ; Number of cases is 26, Range of values is 130 to 229
  5270                           ; switch strategies available:
  5271                           ; Name         Instructions Cycles
  5272                           ; simple_byte           79    40 (average)
  5273                           ;	Chosen strategy is simple_byte
  5274  007884  5063               	movf	??_bancoDados^0,w,c
  5275  007886  0A82               	xorlw	130	; case 130
  5276  007888  B4D8               	btfsc	status,2,c
  5277  00788A  EFC0  F03A         	goto	l2338
  5278  00788E  0A0B               	xorlw	11	; case 137
  5279  007890  B4D8               	btfsc	status,2,c
  5280  007892  EFCE  F03A         	goto	l2342
  5281  007896  0A03               	xorlw	3	; case 138
  5282  007898  B4D8               	btfsc	status,2,c
  5283  00789A  EFD6  F03A         	goto	l2346
  5284  00789E  0A06               	xorlw	6	; case 140
  5285  0078A0  B4D8               	btfsc	status,2,c
  5286  0078A2  EFDE  F03A         	goto	l2350
  5287  0078A6  0A02               	xorlw	2	; case 142
  5288  0078A8  B4D8               	btfsc	status,2,c
  5289  0078AA  EFE6  F03A         	goto	l2354
  5290  0078AE  0A1F               	xorlw	31	; case 145
  5291  0078B0  B4D8               	btfsc	status,2,c
  5292  0078B2  EFEE  F03A         	goto	l2358
  5293  0078B6  0A02               	xorlw	2	; case 147
  5294  0078B8  B4D8               	btfsc	status,2,c
  5295  0078BA  EFF6  F03A         	goto	l2362
  5296  0078BE  0A07               	xorlw	7	; case 148
  5297  0078C0  B4D8               	btfsc	status,2,c
  5298  0078C2  EFFE  F03A         	goto	l2366
  5299  0078C6  0A0D               	xorlw	13	; case 153
  5300  0078C8  B4D8               	btfsc	status,2,c
  5301  0078CA  EF06  F03B         	goto	l2370
  5302  0078CE  0A38               	xorlw	56	; case 161
  5303  0078D0  B4D8               	btfsc	status,2,c
  5304  0078D2  EF32  F03B         	goto	l2380
  5305  0078D6  0A03               	xorlw	3	; case 162
  5306  0078D8  B4D8               	btfsc	status,2,c
  5307  0078DA  EF3A  F03B         	goto	l2384
  5308  0078DE  0A0A               	xorlw	10	; case 168
  5309  0078E0  B4D8               	btfsc	status,2,c
  5310  0078E2  EF42  F03B         	goto	l2388
  5311  0078E6  0A04               	xorlw	4	; case 172
  5312  0078E8  B4D8               	btfsc	status,2,c
  5313  0078EA  EF4A  F03B         	goto	l2392
  5314  0078EE  0A03               	xorlw	3	; case 175
  5315  0078F0  B4D8               	btfsc	status,2,c
  5316  0078F2  EF5E  F03B         	goto	l2398
  5317  0078F6  0A1F               	xorlw	31	; case 176
  5318  0078F8  B4D8               	btfsc	status,2,c
  5319  0078FA  EF66  F03B         	goto	l2402
  5320  0078FE  0A04               	xorlw	4	; case 180
  5321  007900  B4D8               	btfsc	status,2,c
  5322  007902  EF6E  F03B         	goto	l2406
  5323  007906  0A0E               	xorlw	14	; case 186
  5324  007908  B4D8               	btfsc	status,2,c
  5325  00790A  EF76  F03B         	goto	l2410
  5326  00790E  0A7B               	xorlw	123	; case 193
  5327  007910  B4D8               	btfsc	status,2,c
  5328  007912  EF7E  F03B         	goto	l2414
  5329  007916  0A04               	xorlw	4	; case 197
  5330  007918  B4D8               	btfsc	status,2,c
  5331  00791A  EF86  F03B         	goto	l2418
  5332  00791E  0A03               	xorlw	3	; case 198
  5333  007920  B4D8               	btfsc	status,2,c
  5334  007922  EF8E  F03B         	goto	l2422
  5335  007926  0A14               	xorlw	20	; case 210
  5336  007928  B4D8               	btfsc	status,2,c
  5337  00792A  EF96  F03B         	goto	l2426
  5338  00792E  0A08               	xorlw	8	; case 218
  5339  007930  B4D8               	btfsc	status,2,c
  5340  007932  EFAA  F03B         	goto	l2432
  5341  007936  0A3A               	xorlw	58	; case 224
  5342  007938  B4D8               	btfsc	status,2,c
  5343  00793A  EFB2  F03B         	goto	l2436
  5344  00793E  0A02               	xorlw	2	; case 226
  5345  007940  B4D8               	btfsc	status,2,c
  5346  007942  EFBA  F03B         	goto	l2440
  5347  007946  0A06               	xorlw	6	; case 228
  5348  007948  B4D8               	btfsc	status,2,c
  5349  00794A  EFC2  F03B         	goto	l2444
  5350  00794E  0A01               	xorlw	1	; case 229
  5351  007950  B4D8               	btfsc	status,2,c
  5352  007952  EFE2  F03B         	goto	l2452
  5353  007956  EFAD  F03C         	goto	l109
  5354  00795A                     l109:
  5355  00795A  0012               	return		;funcret
  5356  00795C                     __end_of_bancoDados:
  5357                           	callstack 0
  5358                           
  5359 ;; *************** function _fatos *****************
  5360 ;; Defined at:
  5361 ;;		line 118 in file "main.c"
  5362 ;; Parameters:    Size  Location     Type
  5363 ;;  str             2   18[COMRAM] PTR unsigned char 
  5364 ;;		 -> STR_45(61), STR_41(58), STR_38(59), STR_37(60), 
  5365 ;;		 -> STR_36(60), STR_35(59), STR_34(59), STR_33(62), 
  5366 ;;		 -> STR_32(48), STR_31(47), STR_30(26), STR_29(30), 
  5367 ;;		 -> STR_28(26), STR_27(38), STR_26(29), STR_25(34), 
  5368 ;;		 -> STR_24(25), STR_23(24), STR_22(47), STR_21(50), 
  5369 ;;		 -> STR_20(20), STR_19(33), STR_18(42), STR_17(34), 
  5370 ;;		 -> STR_16(46), STR_15(26), STR_14(21), STR_13(26), 
  5371 ;;		 -> STR_12(23), STR_11(23), STR_10(18), STR_9(30), 
  5372 ;;		 -> STR_8(33), STR_7(27), STR_6(37), STR_5(42), 
  5373 ;;		 -> STR_4(21), STR_3(33), STR_2(40), STR_1(99), 
  5374 ;; Auto vars:     Size  Location     Type
  5375 ;;  str4           17   77[COMRAM] unsigned char [17]
  5376 ;;  str3           17   60[COMRAM] unsigned char [17]
  5377 ;;  str2           17   43[COMRAM] unsigned char [17]
  5378 ;;  str1           17   26[COMRAM] unsigned char [17]
  5379 ;;  i               2   94[COMRAM] int 
  5380 ;; Return value:  Size  Location     Type
  5381 ;;                  1    wreg      void 
  5382 ;; Registers used:
  5383 ;;		wreg, fsr0l, fsr0h, fsr2l, fsr2h, status,2, status,0, tblptrl, tblptrh, tblptru, cstack
  5384 ;; Tracked objects:
  5385 ;;		On entry : 0/0
  5386 ;;		On exit  : 0/0
  5387 ;;		Unchanged: 0/0
  5388 ;; Data sizes:     COMRAM   BANK0   BANK1   BANK2   BANK3   BANK4   BANK5
  5389 ;;      Params:         2       0       0       0       0       0       0
  5390 ;;      Locals:        70       0       0       0       0       0       0
  5391 ;;      Temps:          6       0       0       0       0       0       0
  5392 ;;      Totals:        78       0       0       0       0       0       0
  5393 ;;Total ram usage:       78 bytes
  5394 ;; Hardware stack levels used:    1
  5395 ;; Hardware stack levels required when called:    3
  5396 ;; This function calls:
  5397 ;;		_lcd_cmd
  5398 ;;		_lcd_str
  5399 ;;		_limpaTela
  5400 ;;		_strlen
  5401 ;; This function is called by:
  5402 ;;		_bancoDados
  5403 ;;		_init
  5404 ;;		_main
  5405 ;; This function uses a non-reentrant model
  5406 ;;
  5407                           
  5408                           	psect	text14
  5409  007304                     __ptext14:
  5410                           	callstack 0
  5411  007304                     _fatos:
  5412                           	callstack 26
  5413  007304                     
  5414                           ;main.c: 119:     int i;;main.c: 120:     char str1[17];;main.c: 121:     char str2[17];
      +                          ;main.c: 122:     char str3[17];;main.c: 123:     char str4[17];;main.c: 124:     str1[1
      +                          6] = '\0';
  5415  007304  0E00               	movlw	0
  5416  007306  6E2B               	movwf	(fatos@str1+16)^0,c
  5417                           
  5418                           ;main.c: 125:     str2[16] = '\0';
  5419  007308  0E00               	movlw	0
  5420  00730A  6E3C               	movwf	(fatos@str2+16)^0,c
  5421                           
  5422                           ;main.c: 126:     str3[16] = '\0';
  5423  00730C  0E00               	movlw	0
  5424  00730E  6E4D               	movwf	(fatos@str3+16)^0,c
  5425                           
  5426                           ;main.c: 127:     str4[16] = '\0';
  5427  007310  0E00               	movlw	0
  5428  007312  6E5E               	movwf	(fatos@str4+16)^0,c
  5429  007314                     
  5430                           ;main.c: 129:     limpaTela();
  5431  007314  EC57  F030         	call	_limpaTela	;wreg free
  5432  007318                     
  5433                           ;main.c: 130:     if (strlen(str) > 16) {
  5434  007318  C013  F001         	movff	fatos@str,strlen@s
  5435  00731C  C014  F002         	movff	fatos@str+1,strlen@s+1
  5436  007320  EC70  F030         	call	_strlen	;wreg free
  5437  007324  5002               	movf	(?_strlen+1)^0,w,c
  5438  007326  E109               	bnz	u1500
  5439  007328  0E11               	movlw	17
  5440  00732A  5C01               	subwf	?_strlen^0,w,c
  5441  00732C  A0D8               	btfss	status,0,c
  5442  00732E  EF9B  F039         	goto	u1501
  5443  007332  EF9D  F039         	goto	u1500
  5444  007336                     u1501:
  5445  007336  EFAD  F03A         	goto	l78
  5446  00733A                     u1500:
  5447  00733A                     
  5448                           ;main.c: 131:         for (i = 0; i < strlen(str); i++) {
  5449  00733A  0E00               	movlw	0
  5450  00733C  6E60               	movwf	(fatos@i+1)^0,c
  5451  00733E  0E00               	movlw	0
  5452  007340  6E5F               	movwf	fatos@i^0,c
  5453  007342  EF75  F03A         	goto	l2164
  5454  007346                     l2142:
  5455                           
  5456                           ;main.c: 132:             if (str[i] == '\0') {
  5457  007346  505F               	movf	fatos@i^0,w,c
  5458  007348  2413               	addwf	fatos@str^0,w,c
  5459  00734A  6E15               	movwf	??_fatos^0,c
  5460  00734C  5060               	movf	(fatos@i+1)^0,w,c
  5461  00734E  2014               	addwfc	(fatos@str+1)^0,w,c
  5462  007350  6E16               	movwf	(??_fatos+1)^0,c
  5463  007352  C015  FFF6         	movff	??_fatos,tblptrl
  5464  007356  C016  FFF7         	movff	??_fatos+1,tblptrh
  5465  00735A                     	if	0	;tblptru may be non-zero
  5466  00735A                     	endif
  5467  00735A                     	if	0	;tblptru may be non-zero
  5468  00735A                     	endif
  5469  00735A  0008               	tblrd		*
  5470  00735C  50F5               	movf	tablat,w,c
  5471  00735E  0900               	iorlw	0
  5472  007360  A4D8               	btfss	status,2,c
  5473  007362  EFB5  F039         	goto	u1511
  5474  007366  EFB7  F039         	goto	u1510
  5475  00736A                     u1511:
  5476  00736A  EFC3  F039         	goto	l2146
  5477  00736E                     u1510:
  5478  00736E                     
  5479                           ;main.c: 133:                 i = strlen(str);
  5480  00736E  C013  F001         	movff	fatos@str,strlen@s
  5481  007372  C014  F002         	movff	fatos@str+1,strlen@s+1
  5482  007376  EC70  F030         	call	_strlen	;wreg free
  5483  00737A  C001  F05F         	movff	?_strlen,fatos@i
  5484  00737E  C002  F060         	movff	?_strlen+1,fatos@i+1
  5485                           
  5486                           ;main.c: 134:             } else if (i < 16) {
  5487  007382  EF73  F03A         	goto	l2162
  5488  007386                     l2146:
  5489  007386  BE60               	btfsc	(fatos@i+1)^0,7,c
  5490  007388  EFD1  F039         	goto	u1520
  5491  00738C  5060               	movf	(fatos@i+1)^0,w,c
  5492  00738E  E107               	bnz	u1521
  5493  007390  0E10               	movlw	16
  5494  007392  5C5F               	subwf	fatos@i^0,w,c
  5495  007394  B0D8               	btfsc	status,0,c
  5496  007396  EFCF  F039         	goto	u1521
  5497  00739A  EFD1  F039         	goto	u1520
  5498  00739E                     u1521:
  5499  00739E  EFE6  F039         	goto	l2150
  5500  0073A2                     u1520:
  5501  0073A2                     
  5502                           ;main.c: 135:                 str1[i] = str[i];
  5503  0073A2  505F               	movf	fatos@i^0,w,c
  5504  0073A4  2413               	addwf	fatos@str^0,w,c
  5505  0073A6  6E15               	movwf	??_fatos^0,c
  5506  0073A8  5060               	movf	(fatos@i+1)^0,w,c
  5507  0073AA  2014               	addwfc	(fatos@str+1)^0,w,c
  5508  0073AC  6E16               	movwf	(??_fatos+1)^0,c
  5509  0073AE  C015  FFF6         	movff	??_fatos,tblptrl
  5510  0073B2  C016  FFF7         	movff	??_fatos+1,tblptrh
  5511  0073B6                     	if	0	;tblptru may be non-zero
  5512  0073B6                     	endif
  5513  0073B6                     	if	0	;tblptru may be non-zero
  5514  0073B6                     	endif
  5515  0073B6  0E1B               	movlw	low fatos@str1
  5516  0073B8  245F               	addwf	fatos@i^0,w,c
  5517  0073BA  6ED9               	movwf	fsr2l,c
  5518  0073BC  0E00               	movlw	high fatos@str1
  5519  0073BE  2060               	addwfc	(fatos@i+1)^0,w,c
  5520  0073C0  6EDA               	movwf	fsr2h,c
  5521  0073C2  0008               	tblrd		*
  5522  0073C4  CFF5 FFDF          	movff	tablat,indf2
  5523                           
  5524                           ;main.c: 136:             } else if (i < 32) {
  5525  0073C8  EF73  F03A         	goto	l2162
  5526  0073CC                     l2150:
  5527  0073CC  BE60               	btfsc	(fatos@i+1)^0,7,c
  5528  0073CE  EFF4  F039         	goto	u1530
  5529  0073D2  5060               	movf	(fatos@i+1)^0,w,c
  5530  0073D4  E107               	bnz	u1531
  5531  0073D6  0E20               	movlw	32
  5532  0073D8  5C5F               	subwf	fatos@i^0,w,c
  5533  0073DA  B0D8               	btfsc	status,0,c
  5534  0073DC  EFF2  F039         	goto	u1531
  5535  0073E0  EFF4  F039         	goto	u1530
  5536  0073E4                     u1531:
  5537  0073E4  EF15  F03A         	goto	l2154
  5538  0073E8                     u1530:
  5539  0073E8                     
  5540                           ;main.c: 137:                 str2[i - 16] = str[i];
  5541  0073E8  505F               	movf	fatos@i^0,w,c
  5542  0073EA  2413               	addwf	fatos@str^0,w,c
  5543  0073EC  6E15               	movwf	??_fatos^0,c
  5544  0073EE  5060               	movf	(fatos@i+1)^0,w,c
  5545  0073F0  2014               	addwfc	(fatos@str+1)^0,w,c
  5546  0073F2  6E16               	movwf	(??_fatos+1)^0,c
  5547  0073F4  C015  FFF6         	movff	??_fatos,tblptrl
  5548  0073F8  C016  FFF7         	movff	??_fatos+1,tblptrh
  5549  0073FC                     	if	0	;tblptru may be non-zero
  5550  0073FC                     	endif
  5551  0073FC                     	if	0	;tblptru may be non-zero
  5552  0073FC                     	endif
  5553  0073FC  0EF0               	movlw	240
  5554  0073FE  6E17               	movwf	(??_fatos+2)^0,c
  5555  007400  0EFF               	movlw	255
  5556  007402  6E18               	movwf	(??_fatos+3)^0,c
  5557  007404  C05F  F019         	movff	fatos@i,??_fatos+4
  5558  007408  C060  F01A         	movff	fatos@i+1,??_fatos+5
  5559  00740C  5017               	movf	(??_fatos+2)^0,w,c
  5560  00740E  2619               	addwf	(??_fatos+4)^0,f,c
  5561  007410  5018               	movf	(??_fatos+3)^0,w,c
  5562  007412  221A               	addwfc	(??_fatos+5)^0,f,c
  5563  007414  0E2C               	movlw	low fatos@str2
  5564  007416  2419               	addwf	(??_fatos+4)^0,w,c
  5565  007418  6ED9               	movwf	fsr2l,c
  5566  00741A  0E00               	movlw	high fatos@str2
  5567  00741C  201A               	addwfc	(??_fatos+5)^0,w,c
  5568  00741E  6EDA               	movwf	fsr2h,c
  5569  007420  0008               	tblrd		*
  5570  007422  CFF5 FFDF          	movff	tablat,indf2
  5571                           
  5572                           ;main.c: 138:             } else if (i < 48) {
  5573  007426  EF73  F03A         	goto	l2162
  5574  00742A                     l2154:
  5575  00742A  BE60               	btfsc	(fatos@i+1)^0,7,c
  5576  00742C  EF23  F03A         	goto	u1540
  5577  007430  5060               	movf	(fatos@i+1)^0,w,c
  5578  007432  E107               	bnz	u1541
  5579  007434  0E30               	movlw	48
  5580  007436  5C5F               	subwf	fatos@i^0,w,c
  5581  007438  B0D8               	btfsc	status,0,c
  5582  00743A  EF21  F03A         	goto	u1541
  5583  00743E  EF23  F03A         	goto	u1540
  5584  007442                     u1541:
  5585  007442  EF44  F03A         	goto	l2158
  5586  007446                     u1540:
  5587  007446                     
  5588                           ;main.c: 139:                 str3[i - 32] = str[i];
  5589  007446  505F               	movf	fatos@i^0,w,c
  5590  007448  2413               	addwf	fatos@str^0,w,c
  5591  00744A  6E15               	movwf	??_fatos^0,c
  5592  00744C  5060               	movf	(fatos@i+1)^0,w,c
  5593  00744E  2014               	addwfc	(fatos@str+1)^0,w,c
  5594  007450  6E16               	movwf	(??_fatos+1)^0,c
  5595  007452  C015  FFF6         	movff	??_fatos,tblptrl
  5596  007456  C016  FFF7         	movff	??_fatos+1,tblptrh
  5597  00745A                     	if	0	;tblptru may be non-zero
  5598  00745A                     	endif
  5599  00745A                     	if	0	;tblptru may be non-zero
  5600  00745A                     	endif
  5601  00745A  0EE0               	movlw	224
  5602  00745C  6E17               	movwf	(??_fatos+2)^0,c
  5603  00745E  0EFF               	movlw	255
  5604  007460  6E18               	movwf	(??_fatos+3)^0,c
  5605  007462  C05F  F019         	movff	fatos@i,??_fatos+4
  5606  007466  C060  F01A         	movff	fatos@i+1,??_fatos+5
  5607  00746A  5017               	movf	(??_fatos+2)^0,w,c
  5608  00746C  2619               	addwf	(??_fatos+4)^0,f,c
  5609  00746E  5018               	movf	(??_fatos+3)^0,w,c
  5610  007470  221A               	addwfc	(??_fatos+5)^0,f,c
  5611  007472  0E3D               	movlw	low fatos@str3
  5612  007474  2419               	addwf	(??_fatos+4)^0,w,c
  5613  007476  6ED9               	movwf	fsr2l,c
  5614  007478  0E00               	movlw	high fatos@str3
  5615  00747A  201A               	addwfc	(??_fatos+5)^0,w,c
  5616  00747C  6EDA               	movwf	fsr2h,c
  5617  00747E  0008               	tblrd		*
  5618  007480  CFF5 FFDF          	movff	tablat,indf2
  5619                           
  5620                           ;main.c: 140:             } else if (i < 64) {
  5621  007484  EF73  F03A         	goto	l2162
  5622  007488                     l2158:
  5623  007488  BE60               	btfsc	(fatos@i+1)^0,7,c
  5624  00748A  EF52  F03A         	goto	u1550
  5625  00748E  5060               	movf	(fatos@i+1)^0,w,c
  5626  007490  E107               	bnz	u1551
  5627  007492  0E40               	movlw	64
  5628  007494  5C5F               	subwf	fatos@i^0,w,c
  5629  007496  B0D8               	btfsc	status,0,c
  5630  007498  EF50  F03A         	goto	u1551
  5631  00749C  EF52  F03A         	goto	u1550
  5632  0074A0                     u1551:
  5633  0074A0  EF73  F03A         	goto	l71
  5634  0074A4                     u1550:
  5635  0074A4                     
  5636                           ;main.c: 141:                 str4[i - 48] = str[i];
  5637  0074A4  505F               	movf	fatos@i^0,w,c
  5638  0074A6  2413               	addwf	fatos@str^0,w,c
  5639  0074A8  6E15               	movwf	??_fatos^0,c
  5640  0074AA  5060               	movf	(fatos@i+1)^0,w,c
  5641  0074AC  2014               	addwfc	(fatos@str+1)^0,w,c
  5642  0074AE  6E16               	movwf	(??_fatos+1)^0,c
  5643  0074B0  C015  FFF6         	movff	??_fatos,tblptrl
  5644  0074B4  C016  FFF7         	movff	??_fatos+1,tblptrh
  5645  0074B8                     	if	0	;tblptru may be non-zero
  5646  0074B8                     	endif
  5647  0074B8                     	if	0	;tblptru may be non-zero
  5648  0074B8                     	endif
  5649  0074B8  0ED0               	movlw	208
  5650  0074BA  6E17               	movwf	(??_fatos+2)^0,c
  5651  0074BC  0EFF               	movlw	255
  5652  0074BE  6E18               	movwf	(??_fatos+3)^0,c
  5653  0074C0  C05F  F019         	movff	fatos@i,??_fatos+4
  5654  0074C4  C060  F01A         	movff	fatos@i+1,??_fatos+5
  5655  0074C8  5017               	movf	(??_fatos+2)^0,w,c
  5656  0074CA  2619               	addwf	(??_fatos+4)^0,f,c
  5657  0074CC  5018               	movf	(??_fatos+3)^0,w,c
  5658  0074CE  221A               	addwfc	(??_fatos+5)^0,f,c
  5659  0074D0  0E4E               	movlw	low fatos@str4
  5660  0074D2  2419               	addwf	(??_fatos+4)^0,w,c
  5661  0074D4  6ED9               	movwf	fsr2l,c
  5662  0074D6  0E00               	movlw	high fatos@str4
  5663  0074D8  201A               	addwfc	(??_fatos+5)^0,w,c
  5664  0074DA  6EDA               	movwf	fsr2h,c
  5665  0074DC  0008               	tblrd		*
  5666  0074DE  CFF5 FFDF          	movff	tablat,indf2
  5667  0074E2  EF73  F03A         	goto	l2162
  5668  0074E6                     l71:
  5669  0074E6                     l2162:
  5670                           
  5671                           ;main.c: 143:         }
  5672  0074E6  4A5F               	infsnz	fatos@i^0,f,c
  5673  0074E8  2A60               	incf	(fatos@i+1)^0,f,c
  5674  0074EA                     l2164:
  5675  0074EA  C013  F001         	movff	fatos@str,strlen@s
  5676  0074EE  C014  F002         	movff	fatos@str+1,strlen@s+1
  5677  0074F2  EC70  F030         	call	_strlen	;wreg free
  5678  0074F6  5001               	movf	?_strlen^0,w,c
  5679  0074F8  5C5F               	subwf	fatos@i^0,w,c
  5680  0074FA  5002               	movf	(?_strlen+1)^0,w,c
  5681  0074FC  5860               	subwfb	(fatos@i+1)^0,w,c
  5682  0074FE  A0D8               	btfss	status,0,c
  5683  007500  EF84  F03A         	goto	u1561
  5684  007504  EF86  F03A         	goto	u1560
  5685  007508                     u1561:
  5686  007508  EFA3  F039         	goto	l2142
  5687  00750C                     u1560:
  5688  00750C                     
  5689                           ;main.c: 144:         lcd_cmd(0x01);
  5690  00750C  0E01               	movlw	1
  5691  00750E  EC42  F030         	call	_lcd_cmd
  5692                           
  5693                           ;main.c: 145:         lcd_cmd(0x80);
  5694  007512  0E80               	movlw	128
  5695  007514  EC42  F030         	call	_lcd_cmd
  5696  007518                     
  5697                           ;main.c: 146:         lcd_str(str1);
  5698  007518  0E1B               	movlw	low fatos@str1
  5699  00751A  6E0E               	movwf	lcd_str@str^0,c
  5700  00751C  0E00               	movlw	high fatos@str1
  5701  00751E  6E0F               	movwf	(lcd_str@str+1)^0,c
  5702  007520  EC17  F032         	call	_lcd_str	;wreg free
  5703  007524                     
  5704                           ;main.c: 147:         lcd_cmd(0xC0);
  5705  007524  0EC0               	movlw	192
  5706  007526  EC42  F030         	call	_lcd_cmd
  5707                           
  5708                           ;main.c: 148:         lcd_str(str2);
  5709  00752A  0E2C               	movlw	low fatos@str2
  5710  00752C  6E0E               	movwf	lcd_str@str^0,c
  5711  00752E  0E00               	movlw	high fatos@str2
  5712  007530  6E0F               	movwf	(lcd_str@str+1)^0,c
  5713  007532  EC17  F032         	call	_lcd_str	;wreg free
  5714  007536                     
  5715                           ;main.c: 149:         lcd_cmd(0x90);
  5716  007536  0E90               	movlw	144
  5717  007538  EC42  F030         	call	_lcd_cmd
  5718  00753C                     
  5719                           ;main.c: 150:         lcd_str(str3);
  5720  00753C  0E3D               	movlw	low fatos@str3
  5721  00753E  6E0E               	movwf	lcd_str@str^0,c
  5722  007540  0E00               	movlw	high fatos@str3
  5723  007542  6E0F               	movwf	(lcd_str@str+1)^0,c
  5724  007544  EC17  F032         	call	_lcd_str	;wreg free
  5725                           
  5726                           ;main.c: 151:         lcd_cmd(0xD0);
  5727  007548  0ED0               	movlw	208
  5728  00754A  EC42  F030         	call	_lcd_cmd
  5729  00754E                     
  5730                           ;main.c: 152:         lcd_str(str4);
  5731  00754E  0E4E               	movlw	low fatos@str4
  5732  007550  6E0E               	movwf	lcd_str@str^0,c
  5733  007552  0E00               	movlw	high fatos@str4
  5734  007554  6E0F               	movwf	(lcd_str@str+1)^0,c
  5735  007556  EC17  F032         	call	_lcd_str	;wreg free
  5736  00755A                     l78:
  5737  00755A  0012               	return		;funcret
  5738  00755C                     __end_of_fatos:
  5739                           	callstack 0
  5740                           
  5741 ;; *************** function _strlen *****************
  5742 ;; Defined at:
  5743 ;;		line 5 in file "C:\Program Files\Microchip\xc8\v2.20\pic\sources\c99\common\strlen.c"
  5744 ;; Parameters:    Size  Location     Type
  5745 ;;  s               2    0[COMRAM] PTR const unsigned char 
  5746 ;;		 -> STR_45(61), STR_41(58), STR_38(59), STR_37(60), 
  5747 ;;		 -> STR_36(60), STR_35(59), STR_34(59), STR_33(62), 
  5748 ;;		 -> STR_32(48), STR_31(47), STR_30(26), STR_29(30), 
  5749 ;;		 -> STR_28(26), STR_27(38), STR_26(29), STR_25(34), 
  5750 ;;		 -> STR_24(25), STR_23(24), STR_22(47), STR_21(50), 
  5751 ;;		 -> STR_20(20), STR_19(33), STR_18(42), STR_17(34), 
  5752 ;;		 -> STR_16(46), STR_15(26), STR_14(21), STR_13(26), 
  5753 ;;		 -> STR_12(23), STR_11(23), STR_10(18), STR_9(30), 
  5754 ;;		 -> STR_8(33), STR_7(27), STR_6(37), STR_5(42), 
  5755 ;;		 -> STR_4(21), STR_3(33), STR_2(40), STR_1(99), 
  5756 ;; Auto vars:     Size  Location     Type
  5757 ;;  a               2    2[COMRAM] PTR const unsigned char 
  5758 ;;		 -> STR_45(61), STR_41(58), STR_38(59), STR_37(60), 
  5759 ;;		 -> STR_36(60), STR_35(59), STR_34(59), STR_33(62), 
  5760 ;;		 -> STR_32(48), STR_31(47), STR_30(26), STR_29(30), 
  5761 ;;		 -> STR_28(26), STR_27(38), STR_26(29), STR_25(34), 
  5762 ;;		 -> STR_24(25), STR_23(24), STR_22(47), STR_21(50), 
  5763 ;;		 -> STR_20(20), STR_19(33), STR_18(42), STR_17(34), 
  5764 ;;		 -> STR_16(46), STR_15(26), STR_14(21), STR_13(26), 
  5765 ;;		 -> STR_12(23), STR_11(23), STR_10(18), STR_9(30), 
  5766 ;;		 -> STR_8(33), STR_7(27), STR_6(37), STR_5(42), 
  5767 ;;		 -> STR_4(21), STR_3(33), STR_2(40), STR_1(99), 
  5768 ;; Return value:  Size  Location     Type
  5769 ;;                  2    0[COMRAM] unsigned int 
  5770 ;; Registers used:
  5771 ;;		wreg, status,2, status,0, tblptrl, tblptrh, tblptru
  5772 ;; Tracked objects:
  5773 ;;		On entry : 0/0
  5774 ;;		On exit  : 0/0
  5775 ;;		Unchanged: 0/0
  5776 ;; Data sizes:     COMRAM   BANK0   BANK1   BANK2   BANK3   BANK4   BANK5
  5777 ;;      Params:         2       0       0       0       0       0       0
  5778 ;;      Locals:         2       0       0       0       0       0       0
  5779 ;;      Temps:          0       0       0       0       0       0       0
  5780 ;;      Totals:         4       0       0       0       0       0       0
  5781 ;;Total ram usage:        4 bytes
  5782 ;; Hardware stack levels used:    1
  5783 ;; This function calls:
  5784 ;;		Nothing
  5785 ;; This function is called by:
  5786 ;;		_fatos
  5787 ;; This function uses a non-reentrant model
  5788 ;;
  5789                           
  5790                           	psect	text15
  5791  0060E0                     __ptext15:
  5792                           	callstack 0
  5793  0060E0                     _strlen:
  5794                           	callstack 28
  5795  0060E0  C001  F003         	movff	strlen@s,strlen@a
  5796  0060E4  C002  F004         	movff	strlen@s+1,strlen@a+1
  5797  0060E8  EF78  F030         	goto	l2014
  5798  0060EC                     l2012:
  5799  0060EC  4A01               	infsnz	strlen@s^0,f,c
  5800  0060EE  2A02               	incf	(strlen@s+1)^0,f,c
  5801  0060F0                     l2014:
  5802  0060F0  C001  FFF6         	movff	strlen@s,tblptrl
  5803  0060F4  C002  FFF7         	movff	strlen@s+1,tblptrh
  5804  0060F8                     	if	0	;tblptru may be non-zero
  5805  0060F8                     	endif
  5806  0060F8                     	if	0	;tblptru may be non-zero
  5807  0060F8                     	endif
  5808  0060F8  0008               	tblrd		*
  5809  0060FA  50F5               	movf	tablat,w,c
  5810  0060FC  0900               	iorlw	0
  5811  0060FE  A4D8               	btfss	status,2,c
  5812  006100  EF84  F030         	goto	u1241
  5813  006104  EF86  F030         	goto	u1240
  5814  006108                     u1241:
  5815  006108  EF76  F030         	goto	l2012
  5816  00610C                     u1240:
  5817  00610C  5003               	movf	strlen@a^0,w,c
  5818  00610E  5C01               	subwf	strlen@s^0,w,c
  5819  006110  6E01               	movwf	?_strlen^0,c
  5820  006112  5004               	movf	(strlen@a+1)^0,w,c
  5821  006114  5802               	subwfb	(strlen@s+1)^0,w,c
  5822  006116  6E02               	movwf	(?_strlen+1)^0,c
  5823  006118  0012               	return		;funcret
  5824  00611A                     __end_of_strlen:
  5825                           	callstack 0
  5826                           
  5827 ;; *************** function _limpaTela *****************
  5828 ;; Defined at:
  5829 ;;		line 107 in file "main.c"
  5830 ;; Parameters:    Size  Location     Type
  5831 ;;		None
  5832 ;; Auto vars:     Size  Location     Type
  5833 ;;		None
  5834 ;; Return value:  Size  Location     Type
  5835 ;;                  1    wreg      void 
  5836 ;; Registers used:
  5837 ;;		wreg, status,2, status,0, cstack
  5838 ;; Tracked objects:
  5839 ;;		On entry : 0/0
  5840 ;;		On exit  : 0/0
  5841 ;;		Unchanged: 0/0
  5842 ;; Data sizes:     COMRAM   BANK0   BANK1   BANK2   BANK3   BANK4   BANK5
  5843 ;;      Params:         0       0       0       0       0       0       0
  5844 ;;      Locals:         0       0       0       0       0       0       0
  5845 ;;      Temps:          0       0       0       0       0       0       0
  5846 ;;      Totals:         0       0       0       0       0       0       0
  5847 ;;Total ram usage:        0 bytes
  5848 ;; Hardware stack levels used:    1
  5849 ;; Hardware stack levels required when called:    2
  5850 ;; This function calls:
  5851 ;;		_lcd_cmd
  5852 ;; This function is called by:
  5853 ;;		_fatos
  5854 ;;		_main
  5855 ;; This function uses a non-reentrant model
  5856 ;;
  5857                           
  5858                           	psect	text16
  5859  0060AE                     __ptext16:
  5860                           	callstack 0
  5861  0060AE                     _limpaTela:
  5862                           	callstack 28
  5863  0060AE                     
  5864                           ;main.c: 108:     lcd_cmd(0x01);
  5865  0060AE  0E01               	movlw	1
  5866  0060B0  EC42  F030         	call	_lcd_cmd
  5867                           
  5868                           ;main.c: 109:     lcd_cmd(0x80);
  5869  0060B4  0E80               	movlw	128
  5870  0060B6  EC42  F030         	call	_lcd_cmd
  5871                           
  5872                           ;main.c: 110:     lcd_cmd(0x01);
  5873  0060BA  0E01               	movlw	1
  5874  0060BC  EC42  F030         	call	_lcd_cmd
  5875                           
  5876                           ;main.c: 111:     lcd_cmd(0xC0);
  5877  0060C0  0EC0               	movlw	192
  5878  0060C2  EC42  F030         	call	_lcd_cmd
  5879                           
  5880                           ;main.c: 112:     lcd_cmd(0x01);
  5881  0060C6  0E01               	movlw	1
  5882  0060C8  EC42  F030         	call	_lcd_cmd
  5883                           
  5884                           ;main.c: 113:     lcd_cmd(0x90);
  5885  0060CC  0E90               	movlw	144
  5886  0060CE  EC42  F030         	call	_lcd_cmd
  5887                           
  5888                           ;main.c: 114:     lcd_cmd(0x01);
  5889  0060D2  0E01               	movlw	1
  5890  0060D4  EC42  F030         	call	_lcd_cmd
  5891                           
  5892                           ;main.c: 115:     lcd_cmd(0xD0);
  5893  0060D8  0ED0               	movlw	208
  5894  0060DA  EC42  F030         	call	_lcd_cmd
  5895  0060DE  0012               	return		;funcret
  5896  0060E0                     __end_of_limpaTela:
  5897                           	callstack 0
  5898                           
  5899 ;; *************** function _lcd_cmd *****************
  5900 ;; Defined at:
  5901 ;;		line 9 in file "lcd.c"
  5902 ;; Parameters:    Size  Location     Type
  5903 ;;  val             1    wreg     unsigned char 
  5904 ;; Auto vars:     Size  Location     Type
  5905 ;;  val             1   12[COMRAM] unsigned char 
  5906 ;; Return value:  Size  Location     Type
  5907 ;;                  1    wreg      void 
  5908 ;; Registers used:
  5909 ;;		wreg, status,2, status,0, cstack
  5910 ;; Tracked objects:
  5911 ;;		On entry : 0/0
  5912 ;;		On exit  : 0/0
  5913 ;;		Unchanged: 0/0
  5914 ;; Data sizes:     COMRAM   BANK0   BANK1   BANK2   BANK3   BANK4   BANK5
  5915 ;;      Params:         0       0       0       0       0       0       0
  5916 ;;      Locals:         1       0       0       0       0       0       0
  5917 ;;      Temps:          0       0       0       0       0       0       0
  5918 ;;      Totals:         1       0       0       0       0       0       0
  5919 ;;Total ram usage:        1 bytes
  5920 ;; Hardware stack levels used:    1
  5921 ;; Hardware stack levels required when called:    1
  5922 ;; This function calls:
  5923 ;;		_atraso_ms
  5924 ;;		_lcd_wr
  5925 ;; This function is called by:
  5926 ;;		_limpaTela
  5927 ;;		_fatos
  5928 ;;		_init
  5929 ;;		_main
  5930 ;;		_lcd_init
  5931 ;; This function uses a non-reentrant model
  5932 ;;
  5933                           
  5934                           	psect	text17
  5935  006084                     __ptext17:
  5936                           	callstack 0
  5937  006084                     _lcd_cmd:
  5938                           	callstack 28
  5939                           
  5940                           ;incstack = 0
  5941                           ;lcd_cmd@val stored from wreg
  5942  006084  6E0D               	movwf	lcd_cmd@val^0,c
  5943  006086                     
  5944                           ;lcd.c: 10:     (((*(volatile __near unsigned char*)0xF84)) |= (1<<1));
  5945  006086  8284               	bsf	132,1,c	;volatile
  5946  006088                     
  5947                           ;lcd.c: 11:     lcd_wr(val);
  5948  006088  500D               	movf	lcd_cmd@val^0,w,c
  5949  00608A  EC0C  F030         	call	_lcd_wr
  5950  00608E                     
  5951                           ;lcd.c: 12:     (((*(volatile __near unsigned char*)0xF84)) &= ~(1<<2));
  5952  00608E  9484               	bcf	132,2,c	;volatile
  5953  006090                     
  5954                           ;lcd.c: 13:     atraso_ms(3);
  5955  006090  0E00               	movlw	0
  5956  006092  6E08               	movwf	(atraso_ms@t+1)^0,c
  5957  006094  0E03               	movlw	3
  5958  006096  6E07               	movwf	atraso_ms@t^0,c
  5959  006098  EC40  F031         	call	_atraso_ms	;wreg free
  5960  00609C                     
  5961                           ;lcd.c: 14:     (((*(volatile __near unsigned char*)0xF84)) &= ~(1<<1));
  5962  00609C  9284               	bcf	132,1,c	;volatile
  5963  00609E                     
  5964                           ;lcd.c: 15:     atraso_ms(3);
  5965  00609E  0E00               	movlw	0
  5966  0060A0  6E08               	movwf	(atraso_ms@t+1)^0,c
  5967  0060A2  0E03               	movlw	3
  5968  0060A4  6E07               	movwf	atraso_ms@t^0,c
  5969  0060A6  EC40  F031         	call	_atraso_ms	;wreg free
  5970  0060AA                     
  5971                           ;lcd.c: 16:     (((*(volatile __near unsigned char*)0xF84)) |= (1<<1));
  5972  0060AA  8284               	bsf	132,1,c	;volatile
  5973  0060AC  0012               	return		;funcret
  5974  0060AE                     __end_of_lcd_cmd:
  5975                           	callstack 0
  5976                           
  5977 ;; *************** function _lcd_str *****************
  5978 ;; Defined at:
  5979 ;;		line 47 in file "lcd.c"
  5980 ;; Parameters:    Size  Location     Type
  5981 ;;  str             2   13[COMRAM] PTR const unsigned char 
  5982 ;;		 -> STR_48(15), STR_47(17), STR_46(10), STR_44(14), 
  5983 ;;		 -> STR_43(11), STR_42(14), STR_40(11), STR_39(10), 
  5984 ;;		 -> fatos@str4(17), fatos@str3(17), fatos@str2(17), fatos@str1(17), 
  5985 ;; Auto vars:     Size  Location     Type
  5986 ;;  i               1   17[COMRAM] unsigned char 
  5987 ;; Return value:  Size  Location     Type
  5988 ;;                  1    wreg      void 
  5989 ;; Registers used:
  5990 ;;		wreg, fsr0l, fsr0h, status,2, status,0, tblptrl, tblptrh, tblptru, cstack
  5991 ;; Tracked objects:
  5992 ;;		On entry : 0/0
  5993 ;;		On exit  : 0/0
  5994 ;;		Unchanged: 0/0
  5995 ;; Data sizes:     COMRAM   BANK0   BANK1   BANK2   BANK3   BANK4   BANK5
  5996 ;;      Params:         2       0       0       0       0       0       0
  5997 ;;      Locals:         1       0       0       0       0       0       0
  5998 ;;      Temps:          2       0       0       0       0       0       0
  5999 ;;      Totals:         5       0       0       0       0       0       0
  6000 ;;Total ram usage:        5 bytes
  6001 ;; Hardware stack levels used:    1
  6002 ;; Hardware stack levels required when called:    2
  6003 ;; This function calls:
  6004 ;;		_lcd_dat
  6005 ;; This function is called by:
  6006 ;;		_fatos
  6007 ;;		_init
  6008 ;;		_main
  6009 ;; This function uses a non-reentrant model
  6010 ;;
  6011                           
  6012                           	psect	text18
  6013  00642E                     __ptext18:
  6014                           	callstack 0
  6015  00642E                     _lcd_str:
  6016                           	callstack 28
  6017  00642E                     
  6018                           ;lcd.c: 48:     unsigned char i = 0;
  6019  00642E  0E00               	movlw	0
  6020  006430  6E12               	movwf	lcd_str@i^0,c
  6021                           
  6022                           ;lcd.c: 50:     while (str[i] != 0) {
  6023  006432  EF34  F032         	goto	l2026
  6024  006436                     l2022:
  6025                           
  6026                           ;lcd.c: 51:         lcd_dat(str[i]);
  6027  006436  5012               	movf	lcd_str@i^0,w,c
  6028  006438  240E               	addwf	lcd_str@str^0,w,c
  6029  00643A  6E10               	movwf	??_lcd_str^0,c
  6030  00643C  0E00               	movlw	0
  6031  00643E  200F               	addwfc	(lcd_str@str+1)^0,w,c
  6032  006440  6E11               	movwf	(??_lcd_str+1)^0,c
  6033  006442  C010  FFF6         	movff	??_lcd_str,tblptrl
  6034  006446  C011  FFF7         	movff	??_lcd_str+1,tblptrh
  6035  00644A  6AF8               	clrf	tblptru,c
  6036  00644C  0E05               	movlw	(high __ramtop+-1)
  6037  00644E  64F7               	cpfsgt	tblptrh,c
  6038  006450  D003               	bra	u1257
  6039  006452  0008               	tblrd		*
  6040  006454  50F5               	movf	tablat,w,c
  6041  006456  D005               	bra	u1250
  6042  006458                     u1257:
  6043  006458  CFF6 FFE9          	movff	tblptrl,fsr0l
  6044  00645C  CFF7 FFEA          	movff	tblptrh,fsr0h
  6045  006460  50EF               	movf	indf0,w,c
  6046  006462                     u1250:
  6047  006462  EC2D  F030         	call	_lcd_dat
  6048  006466                     
  6049                           ;lcd.c: 52:         i++;
  6050  006466  2A12               	incf	lcd_str@i^0,f,c
  6051  006468                     l2026:
  6052                           
  6053                           ;lcd.c: 50:     while (str[i] != 0) {
  6054  006468  5012               	movf	lcd_str@i^0,w,c
  6055  00646A  240E               	addwf	lcd_str@str^0,w,c
  6056  00646C  6E10               	movwf	??_lcd_str^0,c
  6057  00646E  0E00               	movlw	0
  6058  006470  200F               	addwfc	(lcd_str@str+1)^0,w,c
  6059  006472  6E11               	movwf	(??_lcd_str+1)^0,c
  6060  006474  C010  FFF6         	movff	??_lcd_str,tblptrl
  6061  006478  C011  FFF7         	movff	??_lcd_str+1,tblptrh
  6062  00647C  6AF8               	clrf	tblptru,c
  6063  00647E  0E05               	movlw	(high __ramtop+-1)
  6064  006480  64F7               	cpfsgt	tblptrh,c
  6065  006482  D003               	bra	u1267
  6066  006484  0008               	tblrd		*
  6067  006486  50F5               	movf	tablat,w,c
  6068  006488  D005               	bra	u1260
  6069  00648A                     u1267:
  6070  00648A  CFF6 FFE9          	movff	tblptrl,fsr0l
  6071  00648E  CFF7 FFEA          	movff	tblptrh,fsr0h
  6072  006492  50EF               	movf	indf0,w,c
  6073  006494                     u1260:
  6074  006494  0900               	iorlw	0
  6075  006496  A4D8               	btfss	status,2,c
  6076  006498  EF50  F032         	goto	u1271
  6077  00649C  EF52  F032         	goto	u1270
  6078  0064A0                     u1271:
  6079  0064A0  EF1B  F032         	goto	l2022
  6080  0064A4                     u1270:
  6081  0064A4  0012               	return		;funcret
  6082  0064A6                     __end_of_lcd_str:
  6083                           	callstack 0
  6084                           
  6085 ;; *************** function _lcd_dat *****************
  6086 ;; Defined at:
  6087 ;;		line 19 in file "lcd.c"
  6088 ;; Parameters:    Size  Location     Type
  6089 ;;  val             1    wreg     unsigned char 
  6090 ;; Auto vars:     Size  Location     Type
  6091 ;;  val             1   12[COMRAM] unsigned char 
  6092 ;; Return value:  Size  Location     Type
  6093 ;;                  1    wreg      void 
  6094 ;; Registers used:
  6095 ;;		wreg, status,2, status,0, cstack
  6096 ;; Tracked objects:
  6097 ;;		On entry : 0/0
  6098 ;;		On exit  : 0/0
  6099 ;;		Unchanged: 0/0
  6100 ;; Data sizes:     COMRAM   BANK0   BANK1   BANK2   BANK3   BANK4   BANK5
  6101 ;;      Params:         0       0       0       0       0       0       0
  6102 ;;      Locals:         1       0       0       0       0       0       0
  6103 ;;      Temps:          0       0       0       0       0       0       0
  6104 ;;      Totals:         1       0       0       0       0       0       0
  6105 ;;Total ram usage:        1 bytes
  6106 ;; Hardware stack levels used:    1
  6107 ;; Hardware stack levels required when called:    1
  6108 ;; This function calls:
  6109 ;;		_atraso_ms
  6110 ;;		_lcd_wr
  6111 ;; This function is called by:
  6112 ;;		_teclado
  6113 ;;		_lcd_str
  6114 ;; This function uses a non-reentrant model
  6115 ;;
  6116                           
  6117                           	psect	text19
  6118  00605A                     __ptext19:
  6119                           	callstack 0
  6120  00605A                     _lcd_dat:
  6121                           	callstack 28
  6122                           
  6123                           ;incstack = 0
  6124                           ;lcd_dat@val stored from wreg
  6125  00605A  6E0D               	movwf	lcd_dat@val^0,c
  6126  00605C                     
  6127                           ;lcd.c: 20:     (((*(volatile __near unsigned char*)0xF84)) |= (1<<1));
  6128  00605C  8284               	bsf	132,1,c	;volatile
  6129  00605E                     
  6130                           ;lcd.c: 21:     lcd_wr(val);
  6131  00605E  500D               	movf	lcd_dat@val^0,w,c
  6132  006060  EC0C  F030         	call	_lcd_wr
  6133  006064                     
  6134                           ;lcd.c: 22:     (((*(volatile __near unsigned char*)0xF84)) |= (1<<2));
  6135  006064  8484               	bsf	132,2,c	;volatile
  6136  006066                     
  6137                           ;lcd.c: 23:     atraso_ms(3);
  6138  006066  0E00               	movlw	0
  6139  006068  6E08               	movwf	(atraso_ms@t+1)^0,c
  6140  00606A  0E03               	movlw	3
  6141  00606C  6E07               	movwf	atraso_ms@t^0,c
  6142  00606E  EC40  F031         	call	_atraso_ms	;wreg free
  6143  006072                     
  6144                           ;lcd.c: 24:     (((*(volatile __near unsigned char*)0xF84)) &= ~(1<<1));
  6145  006072  9284               	bcf	132,1,c	;volatile
  6146  006074                     
  6147                           ;lcd.c: 25:     atraso_ms(3);
  6148  006074  0E00               	movlw	0
  6149  006076  6E08               	movwf	(atraso_ms@t+1)^0,c
  6150  006078  0E03               	movlw	3
  6151  00607A  6E07               	movwf	atraso_ms@t^0,c
  6152  00607C  EC40  F031         	call	_atraso_ms	;wreg free
  6153  006080                     
  6154                           ;lcd.c: 26:     (((*(volatile __near unsigned char*)0xF84)) |= (1<<1));
  6155  006080  8284               	bsf	132,1,c	;volatile
  6156  006082  0012               	return		;funcret
  6157  006084                     __end_of_lcd_dat:
  6158                           	callstack 0
  6159                           
  6160 ;; *************** function _lcd_wr *****************
  6161 ;; Defined at:
  6162 ;;		line 5 in file "lcd.c"
  6163 ;; Parameters:    Size  Location     Type
  6164 ;;  val             1    wreg     unsigned char 
  6165 ;; Auto vars:     Size  Location     Type
  6166 ;;  val             1    0[COMRAM] unsigned char 
  6167 ;; Return value:  Size  Location     Type
  6168 ;;                  1    wreg      void 
  6169 ;; Registers used:
  6170 ;;		wreg
  6171 ;; Tracked objects:
  6172 ;;		On entry : 0/0
  6173 ;;		On exit  : 0/0
  6174 ;;		Unchanged: 0/0
  6175 ;; Data sizes:     COMRAM   BANK0   BANK1   BANK2   BANK3   BANK4   BANK5
  6176 ;;      Params:         0       0       0       0       0       0       0
  6177 ;;      Locals:         1       0       0       0       0       0       0
  6178 ;;      Temps:          0       0       0       0       0       0       0
  6179 ;;      Totals:         1       0       0       0       0       0       0
  6180 ;;Total ram usage:        1 bytes
  6181 ;; Hardware stack levels used:    1
  6182 ;; This function calls:
  6183 ;;		Nothing
  6184 ;; This function is called by:
  6185 ;;		_lcd_cmd
  6186 ;;		_lcd_dat
  6187 ;; This function uses a non-reentrant model
  6188 ;;
  6189                           
  6190                           	psect	text20
  6191  006018                     __ptext20:
  6192                           	callstack 0
  6193  006018                     _lcd_wr:
  6194                           	callstack 28
  6195                           
  6196                           ;incstack = 0
  6197                           ;lcd_wr@val stored from wreg
  6198  006018  6E01               	movwf	lcd_wr@val^0,c
  6199  00601A                     
  6200                           ;lcd.c: 6:     (*(volatile __near unsigned char*)0xF83) = val;
  6201  00601A  C001  FF83         	movff	lcd_wr@val,3971	;volatile
  6202  00601E  0012               	return		;funcret
  6203  006020                     __end_of_lcd_wr:
  6204                           	callstack 0
  6205                           
  6206 ;; *************** function _atraso_ms *****************
  6207 ;; Defined at:
  6208 ;;		line 3 in file "delay.c"
  6209 ;; Parameters:    Size  Location     Type
  6210 ;;  t               2    6[COMRAM] int 
  6211 ;; Auto vars:     Size  Location     Type
  6212 ;;  i               2    8[COMRAM] volatile unsigned int 
  6213 ;;  k               1   11[COMRAM] volatile unsigned char 
  6214 ;;  j               1   10[COMRAM] volatile unsigned char 
  6215 ;; Return value:  Size  Location     Type
  6216 ;;                  1    wreg      void 
  6217 ;; Registers used:
  6218 ;;		wreg, status,2, status,0
  6219 ;; Tracked objects:
  6220 ;;		On entry : 0/0
  6221 ;;		On exit  : 0/0
  6222 ;;		Unchanged: 0/0
  6223 ;; Data sizes:     COMRAM   BANK0   BANK1   BANK2   BANK3   BANK4   BANK5
  6224 ;;      Params:         2       0       0       0       0       0       0
  6225 ;;      Locals:         4       0       0       0       0       0       0
  6226 ;;      Temps:          0       0       0       0       0       0       0
  6227 ;;      Totals:         6       0       0       0       0       0       0
  6228 ;;Total ram usage:        6 bytes
  6229 ;; Hardware stack levels used:    1
  6230 ;; This function calls:
  6231 ;;		Nothing
  6232 ;; This function is called by:
  6233 ;;		_bancoDados
  6234 ;;		_init
  6235 ;;		_main
  6236 ;;		_lcd_cmd
  6237 ;;		_lcd_dat
  6238 ;;		_lcd_init
  6239 ;;		_tc_tecla
  6240 ;; This function uses a non-reentrant model
  6241 ;;
  6242                           
  6243                           	psect	text21
  6244  006280                     __ptext21:
  6245                           	callstack 0
  6246  006280                     _atraso_ms:
  6247                           	callstack 28
  6248  006280                     
  6249                           ;delay.c: 4:     volatile unsigned char j, k;;delay.c: 5:     volatile unsigned int i;;d
      +                          elay.c: 7:     for (i = 0; i < (t); i++) {
  6250  006280  0E00               	movlw	0
  6251  006282  6E0A               	movwf	(atraso_ms@i+1)^0,c	;volatile
  6252  006284  0E00               	movlw	0
  6253  006286  6E09               	movwf	atraso_ms@i^0,c	;volatile
  6254  006288  EF66  F031         	goto	l1976
  6255  00628C                     l1954:
  6256                           
  6257                           ;delay.c: 8:         for (j = 0; j < 41; j++) {
  6258  00628C  0E00               	movlw	0
  6259  00628E  6E0B               	movwf	atraso_ms@j^0,c	;volatile
  6260  006290                     l1956:
  6261  006290  0E28               	movlw	40
  6262  006292  640B               	cpfsgt	atraso_ms@j^0,c	;volatile
  6263  006294  EF4E  F031         	goto	u1211
  6264  006298  EF50  F031         	goto	u1210
  6265  00629C                     u1211:
  6266  00629C  EF52  F031         	goto	l1960
  6267  0062A0                     u1210:
  6268  0062A0  EF64  F031         	goto	l1974
  6269  0062A4                     l1960:
  6270                           
  6271                           ;delay.c: 9:             for (k = 0; k < 3; k++);
  6272  0062A4  0E00               	movlw	0
  6273  0062A6  6E0C               	movwf	atraso_ms@k^0,c	;volatile
  6274  0062A8                     l1962:
  6275  0062A8  0E02               	movlw	2
  6276  0062AA  640C               	cpfsgt	atraso_ms@k^0,c	;volatile
  6277  0062AC  EF5A  F031         	goto	u1221
  6278  0062B0  EF5C  F031         	goto	u1220
  6279  0062B4                     u1221:
  6280  0062B4  EF5E  F031         	goto	l1966
  6281  0062B8                     u1220:
  6282  0062B8  EF61  F031         	goto	l1970
  6283  0062BC                     l1966:
  6284  0062BC  2A0C               	incf	atraso_ms@k^0,f,c	;volatile
  6285  0062BE  EF54  F031         	goto	l1962
  6286  0062C2                     l1970:
  6287                           
  6288                           ;delay.c: 10:         }
  6289  0062C2  2A0B               	incf	atraso_ms@j^0,f,c	;volatile
  6290  0062C4  EF48  F031         	goto	l1956
  6291  0062C8                     l1974:
  6292                           
  6293                           ;delay.c: 11:     }
  6294  0062C8  4A09               	infsnz	atraso_ms@i^0,f,c	;volatile
  6295  0062CA  2A0A               	incf	(atraso_ms@i+1)^0,f,c	;volatile
  6296  0062CC                     l1976:
  6297  0062CC  5007               	movf	atraso_ms@t^0,w,c
  6298  0062CE  5C09               	subwf	atraso_ms@i^0,w,c	;volatile
  6299  0062D0  5008               	movf	(atraso_ms@t+1)^0,w,c
  6300  0062D2  580A               	subwfb	(atraso_ms@i+1)^0,w,c	;volatile
  6301  0062D4  A0D8               	btfss	status,0,c
  6302  0062D6  EF6F  F031         	goto	u1231
  6303  0062DA  EF71  F031         	goto	u1230
  6304  0062DE                     u1231:
  6305  0062DE  EF46  F031         	goto	l1954
  6306  0062E2                     u1230:
  6307  0062E2  0012               	return		;funcret
  6308  0062E4                     __end_of_atraso_ms:
  6309                           	callstack 0
  6310                           
  6311 ;; *************** function ___wmul *****************
  6312 ;; Defined at:
  6313 ;;		line 15 in file "C:\Program Files\Microchip\xc8\v2.20\pic\sources\c99\common\Umul16.c"
  6314 ;; Parameters:    Size  Location     Type
  6315 ;;  multiplier      2    0[COMRAM] unsigned int 
  6316 ;;  multiplicand    2    2[COMRAM] unsigned int 
  6317 ;; Auto vars:     Size  Location     Type
  6318 ;;  product         2    4[COMRAM] unsigned int 
  6319 ;; Return value:  Size  Location     Type
  6320 ;;                  2    0[COMRAM] unsigned int 
  6321 ;; Registers used:
  6322 ;;		wreg, status,2, status,0, prodl, prodh
  6323 ;; Tracked objects:
  6324 ;;		On entry : 0/0
  6325 ;;		On exit  : 0/0
  6326 ;;		Unchanged: 0/0
  6327 ;; Data sizes:     COMRAM   BANK0   BANK1   BANK2   BANK3   BANK4   BANK5
  6328 ;;      Params:         4       0       0       0       0       0       0
  6329 ;;      Locals:         2       0       0       0       0       0       0
  6330 ;;      Temps:          0       0       0       0       0       0       0
  6331 ;;      Totals:         6       0       0       0       0       0       0
  6332 ;;Total ram usage:        6 bytes
  6333 ;; Hardware stack levels used:    1
  6334 ;; This function calls:
  6335 ;;		Nothing
  6336 ;; This function is called by:
  6337 ;;		_teclado
  6338 ;;		_bancoDados
  6339 ;;		_main
  6340 ;;		_pwmSet1
  6341 ;;		_pwmSet2
  6342 ;; This function uses a non-reentrant model
  6343 ;;
  6344                           
  6345                           	psect	text22
  6346  006034                     __ptext22:
  6347                           	callstack 0
  6348  006034                     ___wmul:
  6349                           	callstack 29
  6350  006034  5001               	movf	___wmul@multiplier^0,w,c
  6351  006036  0203               	mulwf	___wmul@multiplicand^0,c
  6352  006038  CFF3 F005          	movff	prodl,___wmul@product
  6353  00603C  CFF4 F006          	movff	prodh,___wmul@product+1
  6354  006040  5001               	movf	___wmul@multiplier^0,w,c
  6355  006042  0204               	mulwf	(___wmul@multiplicand+1)^0,c
  6356  006044  50F3               	movf	243,w,c
  6357  006046  2606               	addwf	(___wmul@product+1)^0,f,c
  6358  006048  5002               	movf	(___wmul@multiplier+1)^0,w,c
  6359  00604A  0203               	mulwf	___wmul@multiplicand^0,c
  6360  00604C  50F3               	movf	243,w,c
  6361  00604E  2606               	addwf	(___wmul@product+1)^0,f,c
  6362  006050  C005  F001         	movff	___wmul@product,?___wmul
  6363  006054  C006  F002         	movff	___wmul@product+1,?___wmul+1
  6364  006058  0012               	return		;funcret
  6365  00605A                     __end_of___wmul:
  6366                           	callstack 0
  6367                           
  6368 ;; *************** function _acendeLed *****************
  6369 ;; Defined at:
  6370 ;;		line 95 in file "main.c"
  6371 ;; Parameters:    Size  Location     Type
  6372 ;;  ano             2   10[COMRAM] int 
  6373 ;; Auto vars:     Size  Location     Type
  6374 ;;  i               2   16[COMRAM] int 
  6375 ;;  a               2   14[COMRAM] int 
  6376 ;;  j               2    0        int 
  6377 ;; Return value:  Size  Location     Type
  6378 ;;                  1    wreg      void 
  6379 ;; Registers used:
  6380 ;;		wreg, fsr2l, fsr2h, status,2, status,0, cstack
  6381 ;; Tracked objects:
  6382 ;;		On entry : 0/0
  6383 ;;		On exit  : 0/0
  6384 ;;		Unchanged: 0/0
  6385 ;; Data sizes:     COMRAM   BANK0   BANK1   BANK2   BANK3   BANK4   BANK5
  6386 ;;      Params:         2       0       0       0       0       0       0
  6387 ;;      Locals:         4       0       0       0       0       0       0
  6388 ;;      Temps:          2       0       0       0       0       0       0
  6389 ;;      Totals:         8       0       0       0       0       0       0
  6390 ;;Total ram usage:        8 bytes
  6391 ;; Hardware stack levels used:    1
  6392 ;; Hardware stack levels required when called:    1
  6393 ;; This function calls:
  6394 ;;		_verificaAno
  6395 ;; This function is called by:
  6396 ;;		_main
  6397 ;; This function uses a non-reentrant model
  6398 ;;
  6399                           
  6400                           	psect	text23
  6401  006522                     __ptext23:
  6402                           	callstack 0
  6403  006522                     _acendeLed:
  6404                           	callstack 29
  6405  006522                     
  6406                           ;main.c: 96:     (*(volatile __near unsigned char*)0xF93) = 0x00;
  6407  006522  0E00               	movlw	0
  6408  006524  6E93               	movwf	147,c	;volatile
  6409                           
  6410                           ;main.c: 97:     (*(volatile __near unsigned char*)0xF81) = 0x00;
  6411  006526  0E00               	movlw	0
  6412  006528  6E81               	movwf	129,c	;volatile
  6413  00652A                     
  6414                           ;main.c: 98:     int a = verificaAno(ano);
  6415  00652A  C00B  F001         	movff	acendeLed@ano,verificaAno@ano
  6416  00652E  C00C  F002         	movff	acendeLed@ano+1,verificaAno@ano+1
  6417  006532  EC9B  F033         	call	_verificaAno	;wreg free
  6418  006536  C001  F00F         	movff	?_verificaAno,acendeLed@a
  6419  00653A  C002  F010         	movff	?_verificaAno+1,acendeLed@a+1
  6420  00653E                     
  6421                           ;main.c: 99:     int i, j;;main.c: 100:     for (i = 0; i < 26; i++) {
  6422  00653E  0E00               	movlw	0
  6423  006540  6E12               	movwf	(acendeLed@i+1)^0,c
  6424  006542  0E00               	movlw	0
  6425  006544  6E11               	movwf	acendeLed@i^0,c
  6426  006546                     l2326:
  6427                           
  6428                           ;main.c: 101:         if (vetAnos[i] == a) {
  6429  006546  90D8               	bcf	status,0,c
  6430  006548  3411               	rlcf	acendeLed@i^0,w,c
  6431  00654A  6ED9               	movwf	fsr2l,c
  6432  00654C  3412               	rlcf	(acendeLed@i+1)^0,w,c
  6433  00654E  6EDA               	movwf	fsr2h,c
  6434  006550  0EB4               	movlw	low _vetAnos
  6435  006552  26D9               	addwf	fsr2l,f,c
  6436  006554  0E00               	movlw	high _vetAnos
  6437  006556  22DA               	addwfc	fsr2h,f,c
  6438  006558  500F               	movf	acendeLed@a^0,w,c
  6439  00655A  18DE               	xorwf	postinc2,w,c
  6440  00655C  E107               	bnz	u2011
  6441  00655E  5010               	movf	(acendeLed@a+1)^0,w,c
  6442  006560  18DE               	xorwf	postinc2,w,c
  6443  006562  A4D8               	btfss	status,2,c
  6444  006564  EFB6  F032         	goto	u2011
  6445  006568  EFB8  F032         	goto	u2010
  6446  00656C                     u2011:
  6447  00656C  EFD0  F032         	goto	l2330
  6448  006570                     u2010:
  6449  006570                     
  6450                           ;main.c: 102:             (*(volatile __near unsigned char*)0xF81) = vetLed[vetImpLeds[i
      +                          ] - 1];
  6451  006570  90D8               	bcf	status,0,c
  6452  006572  3411               	rlcf	acendeLed@i^0,w,c
  6453  006574  6ED9               	movwf	fsr2l,c
  6454  006576  3412               	rlcf	(acendeLed@i+1)^0,w,c
  6455  006578  6EDA               	movwf	fsr2h,c
  6456  00657A  0E80               	movlw	low _vetImpLeds
  6457  00657C  26D9               	addwf	fsr2l,f,c
  6458  00657E  0E00               	movlw	high _vetImpLeds
  6459  006580  22DA               	addwfc	fsr2h,f,c
  6460  006582  CFDE F00D          	movff	postinc2,??_acendeLed
  6461  006586  CFDD F00E          	movff	postdec2,??_acendeLed+1
  6462  00658A  90D8               	bcf	status,0,c
  6463  00658C  360D               	rlcf	??_acendeLed^0,f,c
  6464  00658E  360E               	rlcf	(??_acendeLed+1)^0,f,c
  6465  006590  0EE6               	movlw	low (_vetLed+65534)
  6466  006592  240D               	addwf	??_acendeLed^0,w,c
  6467  006594  6ED9               	movwf	fsr2l,c
  6468  006596  0E00               	movlw	high (_vetLed+65534)
  6469  006598  200E               	addwfc	(??_acendeLed+1)^0,w,c
  6470  00659A  6EDA               	movwf	fsr2h,c
  6471  00659C  50DF               	movf	indf2,w,c
  6472  00659E  6E81               	movwf	129,c	;volatile
  6473  0065A0                     l2330:
  6474                           
  6475                           ;main.c: 104:     }
  6476  0065A0  4A11               	infsnz	acendeLed@i^0,f,c
  6477  0065A2  2A12               	incf	(acendeLed@i+1)^0,f,c
  6478  0065A4  BE12               	btfsc	(acendeLed@i+1)^0,7,c
  6479  0065A6  EFDE  F032         	goto	u2021
  6480  0065AA  5012               	movf	(acendeLed@i+1)^0,w,c
  6481  0065AC  E109               	bnz	u2020
  6482  0065AE  0E1A               	movlw	26
  6483  0065B0  5C11               	subwf	acendeLed@i^0,w,c
  6484  0065B2  A0D8               	btfss	status,0,c
  6485  0065B4  EFDE  F032         	goto	u2021
  6486  0065B8  EFE0  F032         	goto	u2020
  6487  0065BC                     u2021:
  6488  0065BC  EFA3  F032         	goto	l2326
  6489  0065C0                     u2020:
  6490  0065C0  0012               	return		;funcret
  6491  0065C2                     __end_of_acendeLed:
  6492                           	callstack 0
  6493                           
  6494 ;; *************** function _verificaAno *****************
  6495 ;; Defined at:
  6496 ;;		line 80 in file "main.c"
  6497 ;; Parameters:    Size  Location     Type
  6498 ;;  ano             2    0[COMRAM] int 
  6499 ;; Auto vars:     Size  Location     Type
  6500 ;;  j               2    8[COMRAM] int 
  6501 ;;  i               2    6[COMRAM] int 
  6502 ;;  ano2            2    4[COMRAM] int 
  6503 ;; Return value:  Size  Location     Type
  6504 ;;                  2    0[COMRAM] int 
  6505 ;; Registers used:
  6506 ;;		wreg, fsr2l, fsr2h, status,2, status,0
  6507 ;; Tracked objects:
  6508 ;;		On entry : 0/0
  6509 ;;		On exit  : 0/0
  6510 ;;		Unchanged: 0/0
  6511 ;; Data sizes:     COMRAM   BANK0   BANK1   BANK2   BANK3   BANK4   BANK5
  6512 ;;      Params:         2       0       0       0       0       0       0
  6513 ;;      Locals:         6       0       0       0       0       0       0
  6514 ;;      Temps:          2       0       0       0       0       0       0
  6515 ;;      Totals:        10       0       0       0       0       0       0
  6516 ;;Total ram usage:       10 bytes
  6517 ;; Hardware stack levels used:    1
  6518 ;; This function calls:
  6519 ;;		Nothing
  6520 ;; This function is called by:
  6521 ;;		_acendeLed
  6522 ;;		_bancoDados
  6523 ;;		_main
  6524 ;; This function uses a non-reentrant model
  6525 ;;
  6526                           
  6527                           	psect	text24
  6528  006736                     __ptext24:
  6529                           	callstack 0
  6530  006736                     _verificaAno:
  6531                           	callstack 30
  6532  006736                     
  6533                           ;main.c: 81:     int ano2 = ano;
  6534  006736  C001  F005         	movff	verificaAno@ano,verificaAno@ano2
  6535  00673A  C002  F006         	movff	verificaAno@ano+1,verificaAno@ano2+1
  6536  00673E                     
  6537                           ;main.c: 82:     for (int i = 0; i < 26; i++) {
  6538  00673E  0E00               	movlw	0
  6539  006740  6E08               	movwf	(verificaAno@i+1)^0,c
  6540  006742  0E00               	movlw	0
  6541  006744  6E07               	movwf	verificaAno@i^0,c
  6542  006746                     l2110:
  6543                           
  6544                           ;main.c: 83:         for (int j = 0; j < 26; j++) {
  6545  006746  0E00               	movlw	0
  6546  006748  6E0A               	movwf	(verificaAno@j+1)^0,c
  6547  00674A  0E00               	movlw	0
  6548  00674C  6E09               	movwf	verificaAno@j^0,c
  6549  00674E                     l2116:
  6550                           
  6551                           ;main.c: 84:             if (ano == vetAnos[j]) {
  6552  00674E  90D8               	bcf	status,0,c
  6553  006750  3409               	rlcf	verificaAno@j^0,w,c
  6554  006752  6ED9               	movwf	fsr2l,c
  6555  006754  340A               	rlcf	(verificaAno@j+1)^0,w,c
  6556  006756  6EDA               	movwf	fsr2h,c
  6557  006758  0EB4               	movlw	low _vetAnos
  6558  00675A  26D9               	addwf	fsr2l,f,c
  6559  00675C  0E00               	movlw	high _vetAnos
  6560  00675E  22DA               	addwfc	fsr2h,f,c
  6561  006760  5001               	movf	verificaAno@ano^0,w,c
  6562  006762  18DE               	xorwf	postinc2,w,c
  6563  006764  E107               	bnz	u1461
  6564  006766  5002               	movf	(verificaAno@ano+1)^0,w,c
  6565  006768  18DE               	xorwf	postinc2,w,c
  6566  00676A  A4D8               	btfss	status,2,c
  6567  00676C  EFBA  F033         	goto	u1461
  6568  006770  EFBC  F033         	goto	u1460
  6569  006774                     u1461:
  6570  006774  EFC2  F033         	goto	l2122
  6571  006778                     u1460:
  6572  006778                     
  6573                           ;main.c: 85:                 return ano;
  6574  006778  C001  F001         	movff	verificaAno@ano,?_verificaAno
  6575  00677C  C002  F002         	movff	verificaAno@ano+1,?_verificaAno+1
  6576  006780  EF02  F034         	goto	l51
  6577  006784                     l2122:
  6578  006784  90D8               	bcf	status,0,c
  6579  006786  3409               	rlcf	verificaAno@j^0,w,c
  6580  006788  6ED9               	movwf	fsr2l,c
  6581  00678A  340A               	rlcf	(verificaAno@j+1)^0,w,c
  6582  00678C  6EDA               	movwf	fsr2h,c
  6583  00678E  0EB4               	movlw	low _vetAnos
  6584  006790  26D9               	addwf	fsr2l,f,c
  6585  006792  0E00               	movlw	high _vetAnos
  6586  006794  22DA               	addwfc	fsr2h,f,c
  6587  006796  5005               	movf	verificaAno@ano2^0,w,c
  6588  006798  18DE               	xorwf	postinc2,w,c
  6589  00679A  E107               	bnz	u1471
  6590  00679C  5006               	movf	(verificaAno@ano2+1)^0,w,c
  6591  00679E  18DE               	xorwf	postinc2,w,c
  6592  0067A0  A4D8               	btfss	status,2,c
  6593  0067A2  EFD5  F033         	goto	u1471
  6594  0067A6  EFD7  F033         	goto	u1470
  6595  0067AA                     u1471:
  6596  0067AA  EFDD  F033         	goto	l2126
  6597  0067AE                     u1470:
  6598  0067AE                     
  6599                           ;main.c: 87:                 return ano2;
  6600  0067AE  C005  F001         	movff	verificaAno@ano2,?_verificaAno
  6601  0067B2  C006  F002         	movff	verificaAno@ano2+1,?_verificaAno+1
  6602  0067B6  EF02  F034         	goto	l51
  6603  0067BA                     l2126:
  6604                           
  6605                           ;main.c: 89:         }
  6606  0067BA  4A09               	infsnz	verificaAno@j^0,f,c
  6607  0067BC  2A0A               	incf	(verificaAno@j+1)^0,f,c
  6608  0067BE  BE0A               	btfsc	(verificaAno@j+1)^0,7,c
  6609  0067C0  EFEB  F033         	goto	u1481
  6610  0067C4  500A               	movf	(verificaAno@j+1)^0,w,c
  6611  0067C6  E109               	bnz	u1480
  6612  0067C8  0E1A               	movlw	26
  6613  0067CA  5C09               	subwf	verificaAno@j^0,w,c
  6614  0067CC  A0D8               	btfss	status,0,c
  6615  0067CE  EFEB  F033         	goto	u1481
  6616  0067D2  EFED  F033         	goto	u1480
  6617  0067D6                     u1481:
  6618  0067D6  EFA7  F033         	goto	l2116
  6619  0067DA                     u1480:
  6620  0067DA                     
  6621                           ;main.c: 90:         ano++;
  6622  0067DA  4A01               	infsnz	verificaAno@ano^0,f,c
  6623  0067DC  2A02               	incf	(verificaAno@ano+1)^0,f,c
  6624                           
  6625                           ;main.c: 91:         ano2--;
  6626  0067DE  0605               	decf	verificaAno@ano2^0,f,c
  6627  0067E0  A0D8               	btfss	status,0,c
  6628  0067E2  0606               	decf	(verificaAno@ano2+1)^0,f,c
  6629                           
  6630                           ;main.c: 92:     }
  6631  0067E4  4A07               	infsnz	verificaAno@i^0,f,c
  6632  0067E6  2A08               	incf	(verificaAno@i+1)^0,f,c
  6633  0067E8  BE08               	btfsc	(verificaAno@i+1)^0,7,c
  6634  0067EA  EF00  F034         	goto	u1491
  6635  0067EE  5008               	movf	(verificaAno@i+1)^0,w,c
  6636  0067F0  E109               	bnz	u1490
  6637  0067F2  0E1A               	movlw	26
  6638  0067F4  5C07               	subwf	verificaAno@i^0,w,c
  6639  0067F6  A0D8               	btfss	status,0,c
  6640  0067F8  EF00  F034         	goto	u1491
  6641  0067FC  EF02  F034         	goto	u1490
  6642  006800                     u1491:
  6643  006800  EFA3  F033         	goto	l2110
  6644  006804                     u1490:
  6645  006804                     l51:
  6646  006804  0012               	return		;funcret
  6647  006806                     __end_of_verificaAno:
  6648                           	callstack 0
  6649                           
  6650 ;; *************** function ___awmod *****************
  6651 ;; Defined at:
  6652 ;;		line 7 in file "C:\Program Files\Microchip\xc8\v2.20\pic\sources\c99\common\awmod.c"
  6653 ;; Parameters:    Size  Location     Type
  6654 ;;  dividend        2    8[COMRAM] int 
  6655 ;;  divisor         2   10[COMRAM] int 
  6656 ;; Auto vars:     Size  Location     Type
  6657 ;;  sign            1   13[COMRAM] unsigned char 
  6658 ;;  counter         1   12[COMRAM] unsigned char 
  6659 ;; Return value:  Size  Location     Type
  6660 ;;                  2    8[COMRAM] int 
  6661 ;; Registers used:
  6662 ;;		wreg, status,2, status,0
  6663 ;; Tracked objects:
  6664 ;;		On entry : 0/0
  6665 ;;		On exit  : 0/0
  6666 ;;		Unchanged: 0/0
  6667 ;; Data sizes:     COMRAM   BANK0   BANK1   BANK2   BANK3   BANK4   BANK5
  6668 ;;      Params:         4       0       0       0       0       0       0
  6669 ;;      Locals:         2       0       0       0       0       0       0
  6670 ;;      Temps:          0       0       0       0       0       0       0
  6671 ;;      Totals:         6       0       0       0       0       0       0
  6672 ;;Total ram usage:        6 bytes
  6673 ;; Hardware stack levels used:    1
  6674 ;; This function calls:
  6675 ;;		Nothing
  6676 ;; This function is called by:
  6677 ;;		_main
  6678 ;; This function uses a non-reentrant model
  6679 ;;
  6680                           
  6681                           	psect	text25
  6682  0065C2                     __ptext25:
  6683                           	callstack 0
  6684  0065C2                     ___awmod:
  6685                           	callstack 30
  6686  0065C2  0E00               	movlw	0
  6687  0065C4  6E0E               	movwf	___awmod@sign^0,c
  6688  0065C6  BE0A               	btfsc	(___awmod@dividend+1)^0,7,c
  6689  0065C8  EFEA  F032         	goto	u2130
  6690  0065CC  EFE8  F032         	goto	u2131
  6691  0065D0                     u2131:
  6692  0065D0  EFF0  F032         	goto	l2632
  6693  0065D4                     u2130:
  6694  0065D4  6C09               	negf	___awmod@dividend^0,c
  6695  0065D6  1E0A               	comf	(___awmod@dividend+1)^0,f,c
  6696  0065D8  B0D8               	btfsc	status,0,c
  6697  0065DA  2A0A               	incf	(___awmod@dividend+1)^0,f,c
  6698  0065DC  0E01               	movlw	1
  6699  0065DE  6E0E               	movwf	___awmod@sign^0,c
  6700  0065E0                     l2632:
  6701  0065E0  BE0C               	btfsc	(___awmod@divisor+1)^0,7,c
  6702  0065E2  EFF7  F032         	goto	u2140
  6703  0065E6  EFF5  F032         	goto	u2141
  6704  0065EA                     u2141:
  6705  0065EA  EFFB  F032         	goto	l2636
  6706  0065EE                     u2140:
  6707  0065EE  6C0B               	negf	___awmod@divisor^0,c
  6708  0065F0  1E0C               	comf	(___awmod@divisor+1)^0,f,c
  6709  0065F2  B0D8               	btfsc	status,0,c
  6710  0065F4  2A0C               	incf	(___awmod@divisor+1)^0,f,c
  6711  0065F6                     l2636:
  6712  0065F6  500B               	movf	___awmod@divisor^0,w,c
  6713  0065F8  100C               	iorwf	(___awmod@divisor+1)^0,w,c
  6714  0065FA  B4D8               	btfsc	status,2,c
  6715  0065FC  EF02  F033         	goto	u2151
  6716  006600  EF04  F033         	goto	u2150
  6717  006604                     u2151:
  6718  006604  EF28  F033         	goto	l2652
  6719  006608                     u2150:
  6720  006608  0E01               	movlw	1
  6721  00660A  6E0D               	movwf	___awmod@counter^0,c
  6722  00660C  EF0C  F033         	goto	l2642
  6723  006610                     l2640:
  6724  006610  90D8               	bcf	status,0,c
  6725  006612  360B               	rlcf	___awmod@divisor^0,f,c
  6726  006614  360C               	rlcf	(___awmod@divisor+1)^0,f,c
  6727  006616  2A0D               	incf	___awmod@counter^0,f,c
  6728  006618                     l2642:
  6729  006618  AE0C               	btfss	(___awmod@divisor+1)^0,7,c
  6730  00661A  EF11  F033         	goto	u2161
  6731  00661E  EF13  F033         	goto	u2160
  6732  006622                     u2161:
  6733  006622  EF08  F033         	goto	l2640
  6734  006626                     u2160:
  6735  006626                     l2644:
  6736  006626  500B               	movf	___awmod@divisor^0,w,c
  6737  006628  5C09               	subwf	___awmod@dividend^0,w,c
  6738  00662A  500C               	movf	(___awmod@divisor+1)^0,w,c
  6739  00662C  580A               	subwfb	(___awmod@dividend+1)^0,w,c
  6740  00662E  A0D8               	btfss	status,0,c
  6741  006630  EF1C  F033         	goto	u2171
  6742  006634  EF1E  F033         	goto	u2170
  6743  006638                     u2171:
  6744  006638  EF22  F033         	goto	l2648
  6745  00663C                     u2170:
  6746  00663C  500B               	movf	___awmod@divisor^0,w,c
  6747  00663E  5E09               	subwf	___awmod@dividend^0,f,c
  6748  006640  500C               	movf	(___awmod@divisor+1)^0,w,c
  6749  006642  5A0A               	subwfb	(___awmod@dividend+1)^0,f,c
  6750  006644                     l2648:
  6751  006644  90D8               	bcf	status,0,c
  6752  006646  320C               	rrcf	(___awmod@divisor+1)^0,f,c
  6753  006648  320B               	rrcf	___awmod@divisor^0,f,c
  6754  00664A  2E0D               	decfsz	___awmod@counter^0,f,c
  6755  00664C  EF13  F033         	goto	l2644
  6756  006650                     l2652:
  6757  006650  500E               	movf	___awmod@sign^0,w,c
  6758  006652  B4D8               	btfsc	status,2,c
  6759  006654  EF2E  F033         	goto	u2181
  6760  006658  EF30  F033         	goto	u2180
  6761  00665C                     u2181:
  6762  00665C  EF34  F033         	goto	l2656
  6763  006660                     u2180:
  6764  006660  6C09               	negf	___awmod@dividend^0,c
  6765  006662  1E0A               	comf	(___awmod@dividend+1)^0,f,c
  6766  006664  B0D8               	btfsc	status,0,c
  6767  006666  2A0A               	incf	(___awmod@dividend+1)^0,f,c
  6768  006668                     l2656:
  6769  006668  C009  F009         	movff	___awmod@dividend,?___awmod
  6770  00666C  C00A  F00A         	movff	___awmod@dividend+1,?___awmod+1
  6771  006670  0012               	return		;funcret
  6772  006672                     __end_of___awmod:
  6773                           	callstack 0
  6774                           
  6775 ;; *************** function ___awdiv *****************
  6776 ;; Defined at:
  6777 ;;		line 7 in file "C:\Program Files\Microchip\xc8\v2.20\pic\sources\c99\common\awdiv.c"
  6778 ;; Parameters:    Size  Location     Type
  6779 ;;  dividend        2    0[COMRAM] int 
  6780 ;;  divisor         2    2[COMRAM] int 
  6781 ;; Auto vars:     Size  Location     Type
  6782 ;;  quotient        2    6[COMRAM] int 
  6783 ;;  sign            1    5[COMRAM] unsigned char 
  6784 ;;  counter         1    4[COMRAM] unsigned char 
  6785 ;; Return value:  Size  Location     Type
  6786 ;;                  2    0[COMRAM] int 
  6787 ;; Registers used:
  6788 ;;		wreg, status,2, status,0
  6789 ;; Tracked objects:
  6790 ;;		On entry : 0/0
  6791 ;;		On exit  : 0/0
  6792 ;;		Unchanged: 0/0
  6793 ;; Data sizes:     COMRAM   BANK0   BANK1   BANK2   BANK3   BANK4   BANK5
  6794 ;;      Params:         4       0       0       0       0       0       0
  6795 ;;      Locals:         4       0       0       0       0       0       0
  6796 ;;      Temps:          0       0       0       0       0       0       0
  6797 ;;      Totals:         8       0       0       0       0       0       0
  6798 ;;Total ram usage:        8 bytes
  6799 ;; Hardware stack levels used:    1
  6800 ;; This function calls:
  6801 ;;		Nothing
  6802 ;; This function is called by:
  6803 ;;		_main
  6804 ;; This function uses a non-reentrant model
  6805 ;;
  6806                           
  6807                           	psect	text26
  6808  006672                     __ptext26:
  6809                           	callstack 0
  6810  006672                     ___awdiv:
  6811                           	callstack 30
  6812  006672  0E00               	movlw	0
  6813  006674  6E06               	movwf	___awdiv@sign^0,c
  6814  006676  BE04               	btfsc	(___awdiv@divisor+1)^0,7,c
  6815  006678  EF42  F033         	goto	u2070
  6816  00667C  EF40  F033         	goto	u2071
  6817  006680                     u2071:
  6818  006680  EF48  F033         	goto	l2588
  6819  006684                     u2070:
  6820  006684  6C03               	negf	___awdiv@divisor^0,c
  6821  006686  1E04               	comf	(___awdiv@divisor+1)^0,f,c
  6822  006688  B0D8               	btfsc	status,0,c
  6823  00668A  2A04               	incf	(___awdiv@divisor+1)^0,f,c
  6824  00668C  0E01               	movlw	1
  6825  00668E  6E06               	movwf	___awdiv@sign^0,c
  6826  006690                     l2588:
  6827  006690  BE02               	btfsc	(___awdiv@dividend+1)^0,7,c
  6828  006692  EF4F  F033         	goto	u2080
  6829  006696  EF4D  F033         	goto	u2081
  6830  00669A                     u2081:
  6831  00669A  EF55  F033         	goto	l2594
  6832  00669E                     u2080:
  6833  00669E  6C01               	negf	___awdiv@dividend^0,c
  6834  0066A0  1E02               	comf	(___awdiv@dividend+1)^0,f,c
  6835  0066A2  B0D8               	btfsc	status,0,c
  6836  0066A4  2A02               	incf	(___awdiv@dividend+1)^0,f,c
  6837  0066A6  0E01               	movlw	1
  6838  0066A8  1A06               	xorwf	___awdiv@sign^0,f,c
  6839  0066AA                     l2594:
  6840  0066AA  0E00               	movlw	0
  6841  0066AC  6E08               	movwf	(___awdiv@quotient+1)^0,c
  6842  0066AE  0E00               	movlw	0
  6843  0066B0  6E07               	movwf	___awdiv@quotient^0,c
  6844  0066B2  5003               	movf	___awdiv@divisor^0,w,c
  6845  0066B4  1004               	iorwf	(___awdiv@divisor+1)^0,w,c
  6846  0066B6  B4D8               	btfsc	status,2,c
  6847  0066B8  EF60  F033         	goto	u2091
  6848  0066BC  EF62  F033         	goto	u2090
  6849  0066C0                     u2091:
  6850  0066C0  EF8A  F033         	goto	l2616
  6851  0066C4                     u2090:
  6852  0066C4  0E01               	movlw	1
  6853  0066C6  6E05               	movwf	___awdiv@counter^0,c
  6854  0066C8  EF6A  F033         	goto	l2602
  6855  0066CC                     l2600:
  6856  0066CC  90D8               	bcf	status,0,c
  6857  0066CE  3603               	rlcf	___awdiv@divisor^0,f,c
  6858  0066D0  3604               	rlcf	(___awdiv@divisor+1)^0,f,c
  6859  0066D2  2A05               	incf	___awdiv@counter^0,f,c
  6860  0066D4                     l2602:
  6861  0066D4  AE04               	btfss	(___awdiv@divisor+1)^0,7,c
  6862  0066D6  EF6F  F033         	goto	u2101
  6863  0066DA  EF71  F033         	goto	u2100
  6864  0066DE                     u2101:
  6865  0066DE  EF66  F033         	goto	l2600
  6866  0066E2                     u2100:
  6867  0066E2                     l2604:
  6868  0066E2  90D8               	bcf	status,0,c
  6869  0066E4  3607               	rlcf	___awdiv@quotient^0,f,c
  6870  0066E6  3608               	rlcf	(___awdiv@quotient+1)^0,f,c
  6871  0066E8  5003               	movf	___awdiv@divisor^0,w,c
  6872  0066EA  5C01               	subwf	___awdiv@dividend^0,w,c
  6873  0066EC  5004               	movf	(___awdiv@divisor+1)^0,w,c
  6874  0066EE  5802               	subwfb	(___awdiv@dividend+1)^0,w,c
  6875  0066F0  A0D8               	btfss	status,0,c
  6876  0066F2  EF7D  F033         	goto	u2111
  6877  0066F6  EF7F  F033         	goto	u2110
  6878  0066FA                     u2111:
  6879  0066FA  EF84  F033         	goto	l2612
  6880  0066FE                     u2110:
  6881  0066FE  5003               	movf	___awdiv@divisor^0,w,c
  6882  006700  5E01               	subwf	___awdiv@dividend^0,f,c
  6883  006702  5004               	movf	(___awdiv@divisor+1)^0,w,c
  6884  006704  5A02               	subwfb	(___awdiv@dividend+1)^0,f,c
  6885  006706  8007               	bsf	___awdiv@quotient^0,0,c
  6886  006708                     l2612:
  6887  006708  90D8               	bcf	status,0,c
  6888  00670A  3204               	rrcf	(___awdiv@divisor+1)^0,f,c
  6889  00670C  3203               	rrcf	___awdiv@divisor^0,f,c
  6890  00670E  2E05               	decfsz	___awdiv@counter^0,f,c
  6891  006710  EF71  F033         	goto	l2604
  6892  006714                     l2616:
  6893  006714  5006               	movf	___awdiv@sign^0,w,c
  6894  006716  B4D8               	btfsc	status,2,c
  6895  006718  EF90  F033         	goto	u2121
  6896  00671C  EF92  F033         	goto	u2120
  6897  006720                     u2121:
  6898  006720  EF96  F033         	goto	l2620
  6899  006724                     u2120:
  6900  006724  6C07               	negf	___awdiv@quotient^0,c
  6901  006726  1E08               	comf	(___awdiv@quotient+1)^0,f,c
  6902  006728  B0D8               	btfsc	status,0,c
  6903  00672A  2A08               	incf	(___awdiv@quotient+1)^0,f,c
  6904  00672C                     l2620:
  6905  00672C  C007  F001         	movff	___awdiv@quotient,?___awdiv
  6906  006730  C008  F002         	movff	___awdiv@quotient+1,?___awdiv+1
  6907  006734  0012               	return		;funcret
  6908  006736                     __end_of___awdiv:
  6909                           	callstack 0
  6910                           
  6911                           	psect	rparam
  6912  0000                     
  6913                           	psect	idloc
  6914                           
  6915                           ;Config register IDLOC0 @ 0x200000
  6916                           ;	unspecified, using default values
  6917  200000                     	org	2097152
  6918  200000  FF                 	db	255
  6919                           
  6920                           ;Config register IDLOC1 @ 0x200001
  6921                           ;	unspecified, using default values
  6922  200001                     	org	2097153
  6923  200001  FF                 	db	255
  6924                           
  6925                           ;Config register IDLOC2 @ 0x200002
  6926                           ;	unspecified, using default values
  6927  200002                     	org	2097154
  6928  200002  FF                 	db	255
  6929                           
  6930                           ;Config register IDLOC3 @ 0x200003
  6931                           ;	unspecified, using default values
  6932  200003                     	org	2097155
  6933  200003  FF                 	db	255
  6934                           
  6935                           ;Config register IDLOC4 @ 0x200004
  6936                           ;	unspecified, using default values
  6937  200004                     	org	2097156
  6938  200004  FF                 	db	255
  6939                           
  6940                           ;Config register IDLOC5 @ 0x200005
  6941                           ;	unspecified, using default values
  6942  200005                     	org	2097157
  6943  200005  FF                 	db	255
  6944                           
  6945                           ;Config register IDLOC6 @ 0x200006
  6946                           ;	unspecified, using default values
  6947  200006                     	org	2097158
  6948  200006  FF                 	db	255
  6949                           
  6950                           ;Config register IDLOC7 @ 0x200007
  6951                           ;	unspecified, using default values
  6952  200007                     	org	2097159
  6953  200007  FF                 	db	255
  6954                           
  6955                           	psect	config
  6956                           
  6957                           ; Padding undefined space
  6958  300000                     	org	3145728
  6959  300000  FF                 	db	255
  6960                           
  6961                           ;Config register CONFIG1H @ 0x300001
  6962                           ;	Oscillator Selection bits
  6963                           ;	OSC = HS, HS oscillator
  6964                           ;	Fail-Safe Clock Monitor Enable bit
  6965                           ;	FCMEN = 0x0, unprogrammed default
  6966                           ;	Internal/External Oscillator Switchover bit
  6967                           ;	IESO = 0x0, unprogrammed default
  6968  300001                     	org	3145729
  6969  300001  02                 	db	2
  6970                           
  6971                           ;Config register CONFIG2L @ 0x300002
  6972                           ;	unspecified, using default values
  6973                           ;	Power-up Timer Enable bit
  6974                           ;	PWRT = 0x1, unprogrammed default
  6975                           ;	Brown-out Reset Enable bits
  6976                           ;	BOREN = 0x3, unprogrammed default
  6977                           ;	Brown Out Reset Voltage bits
  6978                           ;	BORV = 0x3, unprogrammed default
  6979  300002                     	org	3145730
  6980  300002  1F                 	db	31
  6981                           
  6982                           ;Config register CONFIG2H @ 0x300003
  6983                           ;	Watchdog Timer Enable bit
  6984                           ;	WDT = OFF, WDT disabled (control is placed on the SWDTEN bit)
  6985                           ;	Watchdog Timer Postscale Select bits
  6986                           ;	WDTPS = 1, 1:1
  6987  300003                     	org	3145731
  6988  300003  00                 	db	0
  6989                           
  6990                           ; Padding undefined space
  6991  300004                     	org	3145732
  6992  300004  FF                 	db	255
  6993                           
  6994                           ;Config register CONFIG3H @ 0x300005
  6995                           ;	CCP2 MUX bit
  6996                           ;	CCP2MX = 0x1, unprogrammed default
  6997                           ;	PORTB A/D Enable bit
  6998                           ;	PBADEN = 0x1, unprogrammed default
  6999                           ;	Low-Power Timer1 Oscillator Enable bit
  7000                           ;	LPT1OSC = 0x0, unprogrammed default
  7001                           ;	MCLR Pin Enable bit
  7002                           ;	MCLRE = ON, MCLR pin enabled; RE3 input pin disabled
  7003  300005                     	org	3145733
  7004  300005  83                 	db	131
  7005                           
  7006                           ;Config register CONFIG4L @ 0x300006
  7007                           ;	Stack Full/Underflow Reset Enable bit
  7008                           ;	STVREN = 0x1, unprogrammed default
  7009                           ;	Single-Supply ICSP Enable bit
  7010                           ;	LVP = OFF, Single-Supply ICSP disabled
  7011                           ;	Extended Instruction Set Enable bit
  7012                           ;	XINST = 0x0, unprogrammed default
  7013                           ;	Background Debugger Enable bit
  7014                           ;	DEBUG = OFF, Background debugger disabled, RB6 and RB7 configured as general purpose I
      +                          /O pins
  7015  300006                     	org	3145734
  7016  300006  81                 	db	129
  7017                           
  7018                           ; Padding undefined space
  7019  300007                     	org	3145735
  7020  300007  FF                 	db	255
  7021                           
  7022                           ;Config register CONFIG5L @ 0x300008
  7023                           ;	unspecified, using default values
  7024                           ;	Code Protection bit
  7025                           ;	CP0 = 0x1, unprogrammed default
  7026                           ;	Code Protection bit
  7027                           ;	CP1 = 0x1, unprogrammed default
  7028                           ;	Code Protection bit
  7029                           ;	CP2 = 0x1, unprogrammed default
  7030                           ;	Code Protection bit
  7031                           ;	CP3 = 0x1, unprogrammed default
  7032  300008                     	org	3145736
  7033  300008  0F                 	db	15
  7034                           
  7035                           ;Config register CONFIG5H @ 0x300009
  7036                           ;	unspecified, using default values
  7037                           ;	Boot Block Code Protection bit
  7038                           ;	CPB = 0x1, unprogrammed default
  7039                           ;	Data EEPROM Code Protection bit
  7040                           ;	CPD = 0x1, unprogrammed default
  7041  300009                     	org	3145737
  7042  300009  C0                 	db	192
  7043                           
  7044                           ;Config register CONFIG6L @ 0x30000A
  7045                           ;	unspecified, using default values
  7046                           ;	Write Protection bit
  7047                           ;	WRT0 = 0x1, unprogrammed default
  7048                           ;	Write Protection bit
  7049                           ;	WRT1 = 0x1, unprogrammed default
  7050                           ;	Write Protection bit
  7051                           ;	WRT2 = 0x1, unprogrammed default
  7052                           ;	Write Protection bit
  7053                           ;	WRT3 = 0x1, unprogrammed default
  7054  30000A                     	org	3145738
  7055  30000A  0F                 	db	15
  7056                           
  7057                           ;Config register CONFIG6H @ 0x30000B
  7058                           ;	unspecified, using default values
  7059                           ;	Configuration Register Write Protection bit
  7060                           ;	WRTC = 0x1, unprogrammed default
  7061                           ;	Boot Block Write Protection bit
  7062                           ;	WRTB = 0x1, unprogrammed default
  7063                           ;	Data EEPROM Write Protection bit
  7064                           ;	WRTD = 0x1, unprogrammed default
  7065  30000B                     	org	3145739
  7066  30000B  E0                 	db	224
  7067                           
  7068                           ;Config register CONFIG7L @ 0x30000C
  7069                           ;	unspecified, using default values
  7070                           ;	Table Read Protection bit
  7071                           ;	EBTR0 = 0x1, unprogrammed default
  7072                           ;	Table Read Protection bit
  7073                           ;	EBTR1 = 0x1, unprogrammed default
  7074                           ;	Table Read Protection bit
  7075                           ;	EBTR2 = 0x1, unprogrammed default
  7076                           ;	Table Read Protection bit
  7077                           ;	EBTR3 = 0x1, unprogrammed default
  7078  30000C                     	org	3145740
  7079  30000C  0F                 	db	15
  7080                           
  7081                           ;Config register CONFIG7H @ 0x30000D
  7082                           ;	unspecified, using default values
  7083                           ;	Boot Block Table Read Protection bit
  7084                           ;	EBTRB = 0x1, unprogrammed default
  7085  30000D                     	org	3145741
  7086  30000D  40                 	db	64
  7087                           tosu	equ	0xFFF
  7088                           tosh	equ	0xFFE
  7089                           tosl	equ	0xFFD
  7090                           stkptr	equ	0xFFC
  7091                           pclatu	equ	0xFFB
  7092                           pclath	equ	0xFFA
  7093                           pcl	equ	0xFF9
  7094                           tblptru	equ	0xFF8
  7095                           tblptrh	equ	0xFF7
  7096                           tblptrl	equ	0xFF6
  7097                           tablat	equ	0xFF5
  7098                           prodh	equ	0xFF4
  7099                           prodl	equ	0xFF3
  7100                           indf0	equ	0xFEF
  7101                           postinc0	equ	0xFEE
  7102                           postdec0	equ	0xFED
  7103                           preinc0	equ	0xFEC
  7104                           plusw0	equ	0xFEB
  7105                           fsr0h	equ	0xFEA
  7106                           fsr0l	equ	0xFE9
  7107                           wreg	equ	0xFE8
  7108                           indf1	equ	0xFE7
  7109                           postinc1	equ	0xFE6
  7110                           postdec1	equ	0xFE5
  7111                           preinc1	equ	0xFE4
  7112                           plusw1	equ	0xFE3
  7113                           fsr1h	equ	0xFE2
  7114                           fsr1l	equ	0xFE1
  7115                           bsr	equ	0xFE0
  7116                           indf2	equ	0xFDF
  7117                           postinc2	equ	0xFDE
  7118                           postdec2	equ	0xFDD
  7119                           preinc2	equ	0xFDC
  7120                           plusw2	equ	0xFDB
  7121                           fsr2h	equ	0xFDA
  7122                           fsr2l	equ	0xFD9
  7123                           status	equ	0xFD8

Data Sizes:
    Strings     1678
    Constant    20
    Data        130
    BSS         12
    Persistent  0
    Stack       0

Auto Spaces:
    Space          Size  Autos    Used
    COMRAM          127    110     126
    BANK0           128      0     126
    BANK1           256      0       0
    BANK2           256      0       0
    BANK3           256      0       0
    BANK4           256      0       0
    BANK5           256      0       0

Pointer List with Targets:

    strlen@s	PTR const unsigned char  size(2) Largest target is 99
		 -> STR_45(CODE[61]), STR_41(CODE[58]), STR_38(CODE[59]), STR_37(CODE[60]), 
		 -> STR_36(CODE[60]), STR_35(CODE[59]), STR_34(CODE[59]), STR_33(CODE[62]), 
		 -> STR_32(CODE[48]), STR_31(CODE[47]), STR_30(CODE[26]), STR_29(CODE[30]), 
		 -> STR_28(CODE[26]), STR_27(CODE[38]), STR_26(CODE[29]), STR_25(CODE[34]), 
		 -> STR_24(CODE[25]), STR_23(CODE[24]), STR_22(CODE[47]), STR_21(CODE[50]), 
		 -> STR_20(CODE[20]), STR_19(CODE[33]), STR_18(CODE[42]), STR_17(CODE[34]), 
		 -> STR_16(CODE[46]), STR_15(CODE[26]), STR_14(CODE[21]), STR_13(CODE[26]), 
		 -> STR_12(CODE[23]), STR_11(CODE[23]), STR_10(CODE[18]), STR_9(CODE[30]), 
		 -> STR_8(CODE[33]), STR_7(CODE[27]), STR_6(CODE[37]), STR_5(CODE[42]), 
		 -> STR_4(CODE[21]), STR_3(CODE[33]), STR_2(CODE[40]), STR_1(CODE[99]), 

    strlen@a	PTR const unsigned char  size(2) Largest target is 99
		 -> STR_45(CODE[61]), STR_41(CODE[58]), STR_38(CODE[59]), STR_37(CODE[60]), 
		 -> STR_36(CODE[60]), STR_35(CODE[59]), STR_34(CODE[59]), STR_33(CODE[62]), 
		 -> STR_32(CODE[48]), STR_31(CODE[47]), STR_30(CODE[26]), STR_29(CODE[30]), 
		 -> STR_28(CODE[26]), STR_27(CODE[38]), STR_26(CODE[29]), STR_25(CODE[34]), 
		 -> STR_24(CODE[25]), STR_23(CODE[24]), STR_22(CODE[47]), STR_21(CODE[50]), 
		 -> STR_20(CODE[20]), STR_19(CODE[33]), STR_18(CODE[42]), STR_17(CODE[34]), 
		 -> STR_16(CODE[46]), STR_15(CODE[26]), STR_14(CODE[21]), STR_13(CODE[26]), 
		 -> STR_12(CODE[23]), STR_11(CODE[23]), STR_10(CODE[18]), STR_9(CODE[30]), 
		 -> STR_8(CODE[33]), STR_7(CODE[27]), STR_6(CODE[37]), STR_5(CODE[42]), 
		 -> STR_4(CODE[21]), STR_3(CODE[33]), STR_2(CODE[40]), STR_1(CODE[99]), 

    lcd_str@str	PTR const unsigned char  size(2) Largest target is 17
		 -> STR_48(CODE[15]), STR_47(CODE[17]), STR_46(CODE[10]), STR_44(CODE[14]), 
		 -> STR_43(CODE[11]), STR_42(CODE[14]), STR_40(CODE[11]), STR_39(CODE[10]), 
		 -> fatos@str4(COMRAM[17]), fatos@str3(COMRAM[17]), fatos@str2(COMRAM[17]), fatos@str1(COMRAM[17]), 

    fatos@str	PTR unsigned char  size(2) Largest target is 99
		 -> STR_45(CODE[61]), STR_41(CODE[58]), STR_38(CODE[59]), STR_37(CODE[60]), 
		 -> STR_36(CODE[60]), STR_35(CODE[59]), STR_34(CODE[59]), STR_33(CODE[62]), 
		 -> STR_32(CODE[48]), STR_31(CODE[47]), STR_30(CODE[26]), STR_29(CODE[30]), 
		 -> STR_28(CODE[26]), STR_27(CODE[38]), STR_26(CODE[29]), STR_25(CODE[34]), 
		 -> STR_24(CODE[25]), STR_23(CODE[24]), STR_22(CODE[47]), STR_21(CODE[50]), 
		 -> STR_20(CODE[20]), STR_19(CODE[33]), STR_18(CODE[42]), STR_17(CODE[34]), 
		 -> STR_16(CODE[46]), STR_15(CODE[26]), STR_14(CODE[21]), STR_13(CODE[26]), 
		 -> STR_12(CODE[23]), STR_11(CODE[23]), STR_10(CODE[18]), STR_9(CODE[30]), 
		 -> STR_8(CODE[33]), STR_7(CODE[27]), STR_6(CODE[37]), STR_5(CODE[42]), 
		 -> STR_4(CODE[21]), STR_3(CODE[33]), STR_2(CODE[40]), STR_1(CODE[99]), 


Critical Paths under _main in COMRAM

    _main->_bancoDados
    _teclado->_tc_tecla
    _tc_tecla->_atraso_ms
    _ssdUpdate->_digitalWrite
    _ssdInit->_pinMode
    _ssdDigit->___awmod
    _pwmSet1->___lwdiv
    _lcd_init->_lcd_cmd
    _init->_fatos
    _bancoDados->_fatos
    _fatos->_lcd_str
    _limpaTela->_lcd_cmd
    _lcd_cmd->_atraso_ms
    _lcd_str->_lcd_dat
    _lcd_dat->_atraso_ms
    _atraso_ms->___wmul
    _acendeLed->_verificaAno
    ___awmod->___awdiv

Critical Paths under _main in BANK0

    None.

Critical Paths under _main in BANK1

    None.

Critical Paths under _main in BANK2

    None.

Critical Paths under _main in BANK3

    None.

Critical Paths under _main in BANK4

    None.

Critical Paths under _main in BANK5

    None.

Call Graph Tables:

 ---------------------------------------------------------------------------------
 (Depth) Function   	        Calls       Base Space   Used Autos Params    Refs
 ---------------------------------------------------------------------------------
 (0) _main                                                 8     8      0  117725
                                            102 COMRAM     8     8      0
                            ___awdiv
                            ___awmod
                             ___wmul
                          _acendeLed
                          _atraso_ms
                         _bancoDados
                              _fatos
                               _init
                            _lcd_cmd
                           _lcd_init
                            _lcd_str
                          _limpaTela
                            _pwmInit
                            _pwmSet1
                           _ssdDigit
                            _ssdInit
                          _ssdUpdate
                            _teclado
                        _verificaAno
 ---------------------------------------------------------------------------------
 (1) _teclado                                             32    30      2   10382
                                             19 COMRAM    28    26      2
                             ___wmul
                            _lcd_dat
                           _tc_tecla
 ---------------------------------------------------------------------------------
 (2) _tc_tecla                                             7     5      2    4530
                                             12 COMRAM     7     5      2
                          _atraso_ms
 ---------------------------------------------------------------------------------
 (1) _ssdUpdate                                            2     2      0    1660
                                              6 COMRAM     2     2      0
                       _digitalWrite
 ---------------------------------------------------------------------------------
 (2) _digitalWrite                                         6     2      4    1660
                                              0 COMRAM     6     2      4
 ---------------------------------------------------------------------------------
 (1) _ssdInit                                              0     0      0    1048
                            _pinMode
 ---------------------------------------------------------------------------------
 (2) _pinMode                                              6     2      4    1048
                                              0 COMRAM     6     2      4
 ---------------------------------------------------------------------------------
 (1) _ssdDigit                                             2     1      1     480
                                             14 COMRAM     2     1      1
                            ___awdiv (ARG)
                            ___awmod (ARG)
 ---------------------------------------------------------------------------------
 (1) _pwmSet1                                              5     5      0    1932
                                              7 COMRAM     5     5      0
                            ___lwdiv
                             ___wmul
 ---------------------------------------------------------------------------------
 (2) ___lwdiv                                              7     3      4     466
                                              0 COMRAM     7     3      4
 ---------------------------------------------------------------------------------
 (1) _pwmInit                                              0     0      0       0
 ---------------------------------------------------------------------------------
 (1) _lcd_init                                             0     0      0    8224
                          _atraso_ms
                            _lcd_cmd
 ---------------------------------------------------------------------------------
 (1) _init                                                 0     0      0   30897
                          _atraso_ms
                              _fatos
                            _lcd_cmd
                            _lcd_str
 ---------------------------------------------------------------------------------
 (1) _bancoDados                                           6     4      2   23600
                                             96 COMRAM     6     4      2
                             ___wmul
                          _atraso_ms
                              _fatos
                        _verificaAno
 ---------------------------------------------------------------------------------
 (2) _fatos                                               78    76      2   17537
                                             18 COMRAM    78    76      2
                            _lcd_cmd
                            _lcd_str
                          _limpaTela
                             _strlen
 ---------------------------------------------------------------------------------
 (3) _strlen                                               4     2      2     318
                                              0 COMRAM     4     2      2
 ---------------------------------------------------------------------------------
 (1) _limpaTela                                            0     0      0    4134
                            _lcd_cmd
 ---------------------------------------------------------------------------------
 (2) _lcd_cmd                                              1     1      0    4134
                                             12 COMRAM     1     1      0
                          _atraso_ms
                             _lcd_wr
 ---------------------------------------------------------------------------------
 (1) _lcd_str                                              5     3      2    5136
                                             13 COMRAM     5     3      2
                            _lcd_dat
 ---------------------------------------------------------------------------------
 (2) _lcd_dat                                              1     1      0    4134
                                             12 COMRAM     1     1      0
                          _atraso_ms
                             _lcd_wr
 ---------------------------------------------------------------------------------
 (3) _lcd_wr                                               1     1      0      22
                                              0 COMRAM     1     1      0
 ---------------------------------------------------------------------------------
 (3) _atraso_ms                                            6     4      2    4090
                                              6 COMRAM     6     4      2
                             ___wmul (ARG)
 ---------------------------------------------------------------------------------
 (2) ___wmul                                               6     2      4    1375
                                              0 COMRAM     6     2      4
 ---------------------------------------------------------------------------------
 (1) _acendeLed                                           10     8      2     688
                                             10 COMRAM     8     6      2
                        _verificaAno
 ---------------------------------------------------------------------------------
 (1) _verificaAno                                         10     8      2     477
                                              0 COMRAM    10     8      2
 ---------------------------------------------------------------------------------
 (1) ___awmod                                              6     2      4     904
                                              8 COMRAM     6     2      4
                            ___awdiv (ARG)
 ---------------------------------------------------------------------------------
 (1) ___awdiv                                              8     4      4     756
                                              0 COMRAM     8     4      4
 ---------------------------------------------------------------------------------
 Estimated maximum stack depth 3
 ---------------------------------------------------------------------------------

 Call Graph Graphs:

 _main (ROOT)
   ___awdiv
   ___awmod
     ___awdiv (ARG)
   ___wmul
   _acendeLed
     _verificaAno
   _atraso_ms
     ___wmul (ARG)
   _bancoDados
     ___wmul
     _atraso_ms
       ___wmul (ARG)
     _fatos
       _lcd_cmd
         _atraso_ms
           ___wmul (ARG)
         _lcd_wr
       _lcd_str
         _lcd_dat
           _atraso_ms
             ___wmul (ARG)
           _lcd_wr
       _limpaTela
         _lcd_cmd
           _atraso_ms
             ___wmul (ARG)
           _lcd_wr
       _strlen
     _verificaAno
   _fatos
     _lcd_cmd
       _atraso_ms
         ___wmul (ARG)
       _lcd_wr
     _lcd_str
       _lcd_dat
         _atraso_ms
           ___wmul (ARG)
         _lcd_wr
     _limpaTela
       _lcd_cmd
         _atraso_ms
           ___wmul (ARG)
         _lcd_wr
     _strlen
   _init
     _atraso_ms
       ___wmul (ARG)
     _fatos
       _lcd_cmd
         _atraso_ms
           ___wmul (ARG)
         _lcd_wr
       _lcd_str
         _lcd_dat
           _atraso_ms
             ___wmul (ARG)
           _lcd_wr
       _limpaTela
         _lcd_cmd
           _atraso_ms
             ___wmul (ARG)
           _lcd_wr
       _strlen
     _lcd_cmd
       _atraso_ms
         ___wmul (ARG)
       _lcd_wr
     _lcd_str
       _lcd_dat
         _atraso_ms
           ___wmul (ARG)
         _lcd_wr
   _lcd_cmd
     _atraso_ms
       ___wmul (ARG)
     _lcd_wr
   _lcd_init
     _atraso_ms
       ___wmul (ARG)
     _lcd_cmd
       _atraso_ms
         ___wmul (ARG)
       _lcd_wr
   _lcd_str
     _lcd_dat
       _atraso_ms
         ___wmul (ARG)
       _lcd_wr
   _limpaTela
     _lcd_cmd
       _atraso_ms
         ___wmul (ARG)
       _lcd_wr
   _pwmInit
   _pwmSet1
     ___lwdiv
     ___wmul
   _ssdDigit
     ___awdiv (ARG)
     ___awmod (ARG)
       ___awdiv (ARG)
   _ssdInit
     _pinMode
   _ssdUpdate
     _digitalWrite
   _teclado
     ___wmul
     _lcd_dat
       _atraso_ms
         ___wmul (ARG)
       _lcd_wr
     _tc_tecla
       _atraso_ms
         ___wmul (ARG)
   _verificaAno

 Address spaces:
Name               Size   Autos  Total    Cost      Usage
BIGRAM             5FF      0       0      17        0.0%
EEDATA             100      0       0       0        0.0%
BITBANK5           100      0       0      16        0.0%
BANK5              100      0       0      14        0.0%
BITBANK4           100      0       0      12        0.0%
BANK4              100      0       0      13        0.0%
BITBANK3           100      0       0      10        0.0%
BANK3              100      0       0      11        0.0%
BITBANK2           100      0       0       8        0.0%
BANK2              100      0       0       9        0.0%
BITBANK1           100      0       0       6        0.0%
BANK1              100      0       0       7        0.0%
BITBANK0            80      0       0       4        0.0%
BANK0               80      0      7E       5       98.4%
BITCOMRAM           7F      0       0       0        0.0%
COMRAM              7F     6E      7E       1       99.2%
BITSFR               0      0       0     200        0.0%
SFR                  0      0       0     200        0.0%
STACK                0      0       0       2        0.0%
NULL                 0      0       0       0        0.0%
ABS                  0      0      FC      15        0.0%
DATA                 0      0      FC       3        0.0%
CODE                 0      0       0       0        0.0%


Microchip Technology PIC18 Macro Assembler V2.20 build 20200408173844 
Symbol Table                                                                                   Fri Jul 30 21:18:53 2021

                     l51 6804                       l43 690C                       l62 60DE  
                     l71 74E6                       l59 65C0                       l78 755A  
           ___awdiv@sign 0006                       _v0 0076                       _v1 0075  
                     _v2 0074                       _v3 0073      ___wmul@multiplicand 0003  
                    l112 634C                      l122 6E64                      l132 62E2  
                    l213 601E                      l109 795A                      l222 6222  
                    l216 60AC                      l208 70B4                      l250 6AF0  
                    l219 6082                      l243 6AC8                      l228 64A4  
                    l260 6B70                      l309 63B8                      l253 6B48  
                    l245 6AB2                      l318 6032                      l174 7302  
                    l270 6C26                      l255 6B30                      l248 6B08  
                    l361 6058                      l345 61C6                      l355 6A5C  
                    l605 6670                      l358 616E                      l592 6734  
                    l852 6424                      l859 642C             ___awmod@sign 000E  
                    wreg 000FE8                     l2000 6090                     l2002 609C  
                   l2010 60E0                     l2020 642E                     l2004 609E  
                   l2012 60EC                     l2110 6746                     l2102 6736  
                   l2022 6436                     l2006 60AA                     l1038 6118  
                   l2014 60F0                     l2030 6A6A                     l2104 673E  
                   l2024 6466                     l2008 60AE                     l2016 610C  
                   l2200 71F4                     l2040 6A8A                     l2032 6A72  
                   l2130 67DA                     l2122 6784                     l2026 6468  
                   l2210 728E                     l2202 7216                     l2050 6AD6  
                   l2042 6A98                     l2132 67E8                     l2124 67AE  
                   l2116 674E                     l2140 733A                     l2220 6E84  
                   l2212 72AA                     l2204 7232                     l2060 6B22  
                   l2052 6AE2                     l2044 6AA4                     l2028 6A5E  
                   l2300 6836                     l2126 67BA                     l2118 6778  
                   l2150 73CC                     l2142 7346                     l2134 7304  
                   l2230 6F06                     l2222 6E96                     l2214 72C4  
                   l2206 724C                     l2038 6A76                     l2310 68E4  
                   l2302 6868                     l2128 67BE                     l2320 653E  
                   l2160 74A4                     l2152 73E8                     l2144 736E  
                   l2136 7314                     l1600 6024                     l2240 6FA2  
                   l2232 6F2A                     l2224 6EB6                     l2216 72E4  
                   l2208 726C                     l2072 6B7E                     l2064 6B3E  
                   l2056 6AFE                     l2080 6BAC                     l2048 6AC0  
                   l2312 6904                     l2304 686C                     l2330 65A0  
                   l2170 7524                     l2154 742A                     l2162 74E6  
                   l2146 7386                     l2138 7318                     l2410 76EC  
                   l2402 76CC                     l1602 6028                     l2250 7040  
                   l2242 6FC8                     l2234 6F50                     l2226 6ED8  
                   l2218 6E68                     l2090 6BF8                     l2082 6BB8  
                   l2066 6B56                     l2074 6B88                     l2058 6B16  
                   l2306 6888                     l2332 65A4                     l2316 6522  
                   l2260 6050                     l2172 7536                     l2156 7446  
                   l2148 73A2                     l2164 74EA                     l2340 758C  
                   l2500 61C8                     l2252 705C                     l2244 6FE4  
                   l2236 6F6C                     l2228 6EF4                     l2180 70D2  
                   l2092 6C08                     l2076 6B9A                     l2068 6B62  
                   l2084 6BC0                     l2308 68DC                     l2326 6546  
                   l2318 652A                     l2174 753C                     l2166 750C  
                   l2158 7488                     l2430 7744                     l2422 771C  
                   l2414 76FC                     l2406 76DC                     l2350 75BC  
                   l2342 759C                     l2334 755C                     l2502 61CC  
                   l2270 63DC                     l2510 6172                     l2254 706E  
                   l2246 6FF6                     l2238 6F7E                     l2190 715C  
                   l2182 70E4                     l2094 6C0A                     l2086 6BD6  
                   l2078 6B9C                     l2600 66CC                     l2328 6570  
                   l2176 754E                     l2168 7518                     l2440 7774  
                   l2432 7754                     l2336 7570                     l2504 61D8  
                   l2280 6416                     l2272 63E4                     l2264 63BA  
                   l2520 61AC                     l2512 6182                     l2256 7092  
                   l2248 701A                     l2192 717C                     l2184 7104  
                   l2096 6C1C                     l2088 6BE8                     l2610 6706  
                   l2602 66D4                     l2258 6034                     l2450 77B4  
                   l2426 772C                     l2418 770C                     l2370 760C  
                   l2362 75EC                     l2354 75CC                     l2346 75AC  
                   l2338 7580                     l2282 6418                     l2274 63F2  
                   l2266 63C2                     l2522 61B0                     l2514 6186  
                   l2506 611A                     l2194 719E                     l2186 7126  
                   l2178 70B6                     l2530 6926                     l2098 6C20  
                   l2620 672C                     l2612 6708                     l2604 66E2  
                   l2460 780A                     l2452 77C4                     l2444 7784  
                   l2436 7764                     l2428 7738                     l2380 7664  
                   l2372 7618                     l2284 641E                     l2276 63F8  
                   l2268 63D4                     l2524 61C2                     l2516 6196  
                   l2508 616A                     l2196 71BA                     l2188 7142  
                   l2540 6990                     l2532 693A                     l2292 680E  
                   l2700 6D7A                     l2614 670E                     l2606 66E8  
                   l2630 65DC                     l2470 784A                     l2462 7816  
                   l2454 77D0                     l2446 7790                     l2374 7624  
                   l2366 75FC                     l2358 75DC                     l2278 640E  
                   l2518 619A                     l2198 71D4                     l2550 69D8  
                   l2542 6998                     l2534 694E                     l2526 690E  
                   l2294 6812                     l2286 6806                     l2710 6DAA  
                   l2702 6D80                     l2608 66FE                     l2616 6714  
                   l2640 6610                     l2632 65E0                     l2624 65C2  
                   l2464 7824                     l2456 77F0                     l2448 779C  
                   l2392 7694                     l2384 7674                     l2376 763C  
                   l2480 62E4                     l2552 69EC                     l2544 69AA  
                   l2536 696A                     l2528 6912                     l2296 682C  
                   l2720 6DE8                     l2712 6DB6                     l2704 6D8C  
                   l2618 6724                     l2650 664A                     l2642 6618  
                   l2634 65EE                     l2626 65C6                     l2466 7830  
                   l2458 77FC                     l2394 76A0                     l2378 7648  
                   l2474 786E                     l2490 6320                     l2482 62EA  
                   l2570 6350                     l2554 69F4                     l2546 69BE  
                   l2538 697C                     l2298 6830                     l2730 6E0C  
                   l2722 6DEC                     l2714 6DC2                     l2706 6D92  
                   l2580 6672                     l2644 6626                     l2652 6650  
                   l2636 65F6                     l2628 65D4                     l2468 783E  
                   l2396 76AC                     l2388 7684                     l2492 632E  
                   l2484 62F6                     l2572 636E                     l2556 6A06  
                   l2548 69C6                     l2564 6A22                     l2732 6E12  
                   l2724 6DF2                     l2716 6DCE                     l2708 6D9E  
                   l2740 6E50                     l2660 6C28                     l2590 669E  
                   l2582 6676                     l2654 6660                     l2646 663C  
                   l2638 6608                     l2398 76BC                     l2494 6334  
                   l2486 6308                     l1598 6020                     l2574 638A  
                   l2814 6A36                     l2558 6A1A                     l2734 6E1E  
                   l2726 6DFE                     l2718 6DDA                     l2670 6C50  
                   l2662 6C40                     l2592 66A6                     l2584 6684  
                   l2656 6668                     l2648 6644                     l1960 62A4  
                   l1952 6280                     l2816 7884                     l2496 633A  
                   l2488 6314                     l2576 6392                     l2736 6E24  
                   l2728 6E06                     l2672 6C5C                     l2664 6C44  
                   l2594 66AA                     l2586 668C                     l1970 62C2  
                   l1962 62A8                     l1954 628C                     l2498 6346  
                   l2578 63AA                     l2738 6E30                     l2690 6D40  
                   l2674 6C60                     l2666 6C48                     l2596 66B2  
                   l2588 6690                     l1956 6290                     l1980 605C  
                   l2692 6D5C                     l2684 6C84                     l2676 6C68  
                   l2668 6C4C                     l2598 66C4                     l1966 62BC  
                   l1974 62C8                     l1990 6074                     l1982 605E  
                   l2694 6D68                     l2686 6D38                     l2678 6C7C  
                   l1976 62CC                     l1992 6080                     l1984 6064  
                   l2696 6D6E                     l2688 6D3C                     l1978 601A  
                   l1986 6066                     l1994 6086                     l2698 6D74  
                   l1988 6072                     l1996 6088                     l1998 608E  
                   STR_1 7971                     STR_2 7CF4                     STR_3 7DAB  
                   STR_4 7F49                     STR_5 7CCA                     STR_6 7D42  
                   STR_7 7E67                     STR_8 7DCC                     STR_9 7E2C  
                   u2000 6888                     u2001 6884                     u2010 6570  
                   u1210 62A0                     u2011 656C                     u1211 629C  
                   u2100 66E2                     u2020 65C0                     u1220 62B8  
                   u1300 6AC0                     u2101 66DE                     u2021 65BC  
                   u1221 62B4                     u1301 6ABC                     u2110 66FE  
                   u1230 62E2                     u2030 6182                     u1310 6AD6  
                   u2111 66FA                     u1231 62DE                     u2031 617E  
                   u1311 6AD2                     u2120 6724                     u1240 610C  
                   u2040 6196                     u1400 6BAC                     u1320 6AF0  
                   u2200 6E64                     u2121 6720                     u1241 6108  
                   u2041 6192                     u1401 6BA8                     u1321 6AEC  
                   u2201 6E60                     u2130 65D4                     u1250 6462  
                   u2050 61AC                     u1410 6BD6                     u1330 6AFE  
                   u2131 65D0                     u2051 61A8                     u1411 6BD2  
                   u1331 6AFA                     u2140 65EE                     u1260 6494  
                   u1500 733A                     u2060 61C2                     u1420 6BE8  
                   u1340 6B16                     u2141 65EA                     u1501 7336  
                   u2061 61BE                     u1421 6BE4                     u1341 6B12  
                   u2070 6684                     u2150 6608                     u1270 64A4  
                   u1510 736E                     u1430 6BF8                     u1350 6B30  
                   u2071 6680                     u2151 6604                     u1271 64A0  
                   u1511 736A                     u1431 6BF4                     u1351 6B2C  
                   u2080 669E                     u2160 6626                     u1520 73A2  
                   u1440 6C08                     u1360 6B3E                     u1280 6A98  
                   u2081 669A                     u2161 6622                     u1257 6458  
                   u1521 739E                     u1441 6C04                     u1361 6B3A  
                   u1281 6A94                     u2090 66C4                     u2170 663C  
                   u1530 73E8                     u1610 7142                     u1450 6C1C  
                   u1370 6B56                     u1290 6AB2                     u2091 66C0  
                   u2171 6638                     u1267 648A                     u1531 73E4  
                   u1611 713E                     u1451 6C18                     u1371 6B52  
                   u1291 6AAE                     u2180 6660                     u1460 6778  
                   u1540 7446                     u1700 724C                     u1620 715C  
                   u1604 7116                     u1380 6B70                     u2181 665C  
                   u1461 6774                     u1541 7442                     u1701 7248  
                   u1621 7158                     u1605 7112                     u1381 6B6C  
                   u1470 67AE                     u1550 74A4                     u1390 6B7E  
                   u2190 6D5C                     u1471 67AA                     u1551 74A0  
                   u1391 6B7A                     u2191 6D58                     u1480 67DA  
                   u1560 750C                     u1481 67D6                     u1561 7508  
                   u1490 6804                     u1810 6EF4                     u1730 72AA  
                   u1714 725E                     u1650 71BA                     u1634 716E  
                   u1570 70D2                     u1491 6800                     u1811 6EF0  
                   u1731 72A6                     u1715 725A                     u1651 71B6  
                   u1635 716A                     u1571 70CE                     u1900 6FF6  
                   u1820 6F06                     u1804 6EC8                     u1740 72C4  
                   u1724 727E                     u1660 71D4                     u1644 718E  
                   u1580 70E4                     u1901 6FF2                     u1821 6F02  
                   u1805 6EC4                     u1741 72C0                     u1725 727A  
                   u1661 71D0                     u1645 718A                     u1581 70E0  
                   u1930 705C                     u1914 700C                     u1850 6F6C  
                   u1834 6F1C                     u1770 6E84                     u1754 72D6  
                   u1690 7232                     u1674 71E6                     u1594 70F6  
                   u1931 7058                     u1915 7008                     u1851 6F68  
                   u1835 6F18                     u1771 6E80                     u1755 72D2  
                   u1691 722E                     u1675 71E2                     u1595 70F2  
                   u1940 706E                     u1924 7030                     u1860 6F7E  
                   u1844 6F40                     u1780 6E96                     u1764 72F6  
                   u1684 7206                     u1941 706A                     u1925 702C  
                   u1861 6F7A                     u1845 6F3C                     u1781 6E92  
                   u1765 72F2                     u1685 7202                     u1970 63D4  
                   u1954 7084                     u1890 6FE4                     u1874 6F94  
                   u1794 6EA8                     u1971 63D0                     u1955 7080  
                   u1891 6FE0                     u1875 6F90                     u1795 6EA4  
                   u1980 63F2                     u1964 70A8                     u1884 6FB8  
                   u1981 63EE                     u1965 70A4                     u1885 6FB4  
                   u1990 640E                     u1991 640A                     _main 6C28  
                   _init 62E4                     fsr0h 000FEA                     indf0 000FEF  
                   fsr2h 000FDA                     fsr0l 000FE9                     indf2 000FDF  
                   fsr1l 000FE1                     fsr2l 000FD9                     prodh 000FF4  
                   prodl 000FF3                     start 0000             ___param_bank 000000  
           verificaAno@i 0007             verificaAno@j 0009                    ?_main 0001  
                  ?_init 0001          __end_of___awdiv 6736                    STR_10 7F87  
                  STR_11 7F32                    STR_20 7F73                    STR_12 7F1B  
                  STR_13 7E9C                    STR_21 7BB2                    STR_14 7F5E  
                  STR_30 7EB6                    STR_22 7C14                    STR_23 7F03  
                  STR_15 7ED0                    STR_31 7C43                    STR_40 7FD5  
                  STR_24 7EEA                    STR_16 7C72                    STR_32 7BE4  
                  STR_25 7D89                    STR_17 7D67                    STR_41 7B78  
                  STR_33 79D4                    STR_42 7FC7                    STR_26 7E4A  
                  STR_18 7CA0                    STR_34 7B3D                    STR_43 7FE0  
                  STR_19 7DED                    STR_27 7D1C                    STR_35 7AC7  
                  STR_44 7FB9                    STR_28 7E82                    STR_36 7A8B  
        __end_of___awmod 6672                    STR_29 7E0E                    STR_37 7A4F  
                  STR_45 7A12                    STR_46 7FF5                    STR_38 7B02  
                  STR_39 7FEB                    STR_47 7F99                    STR_48 7FAA  
        ___awdiv@divisor 0003          __end_of___lwdiv 642E          ___awdiv@counter 0005  
                  _PORTA 000F80                    _PORTB 000F81                    _PORTC 000F82  
                  _PORTD 000F83                    _PORTE 000F84                    _TRISA 000F92  
                  _TRISB 000F93                    _TRISC 000F94                    _TRISD 000F95  
                  _TRISE 000F96          __end_of_lcd_dat 6084          __end_of_lcd_cmd 60AE  
        __end_of_lcd_str 64A6                    _delay 007B                    _fatos 7304  
                  _linha 796D          __end_of_pinMode 70B6                    _valor 00FC  
                  main@a 006D                    main@i 0067          __end_of_teclado 690E  
                  tablat 000FF5          __end_of_ssdInit 6170          __end_of_pwmSet1 63BA  
        __end_of_pwmInit 6034                    status 000FD8     __end_of_digitalWrite 7304  
        __initialization 6224             __end_of_main 6E68             __end_of_init 634E  
                 ??_main 0067                   ??_init 0061            __activetblptr 000002  
        tc_tecla@timeout 000D                   ?_fatos 0013         ___awdiv@dividend 0001  
       __end_of_lcd_init 6224                   ___wmul 6034                ??___awdiv 0005  
              ??___awmod 000D                ??___lwdiv 0005                   _lcd_wr 6018  
                 _atraso 00F6                   clear_0 6270         ___awdiv@quotient 0007  
        ___awmod@divisor 000B                   _vetLed 00E8                   fatos@i 005F  
        ___awmod@counter 000D                ??_lcd_dat 000D                ??_lcd_cmd 000D  
       __end_of_tc_tecla 6C28                   _strlen 60E0                ??_lcd_str 0010  
       __end_of_ssdDigit 61C8             __pdataCOMRAM 0079                ??_pinMode 0005  
              ??_teclado 0016             __mediumconst 795C                   tblptrh 000FF7  
                 tblptrl 000FF6                   tblptru 000FF8                ??_ssdInit 0007  
              ??_pwmSet1 0008                ??_pwmInit 0001               __accesstop 0080  
__end_of__initialization 6276             ?_verificaAno 0001            ___rparam_used 000001  
     __size_of_acendeLed 00A0              pinMode@type 0003           __pcstackCOMRAM 0001  
           __pidataBANK0 64A6            __end_of_fatos 755C            __end_of_linha 7971  
             _bancoDados 755C                  ??_fatos 0015       __size_of_atraso_ms 0064  
             __pbssBANK0 00FC    __size_of_digitalWrite 024E              tc_tecla@ret 0012  
            tc_tecla@tmp 0011       __size_of_limpaTela 0032           verificaAno@ano 0001  
                ?___wmul 0001              teclado@i_98 002E                  ?_lcd_wr 0001  
             acendeLed@a 000F              teclado@ano1 0022               acendeLed@i 0011  
                ?_strlen 0001       __size_of_ssdUpdate 0150        __end_of_acendeLed 65C2  
           _digitalWrite 70B6                ?_lcd_init 0001             acendeLed@ano 000B  
             _atraso_min 00F8                ?_tc_tecla 000D                  __Hparam 0000  
                __Lparam 0000                ?_ssdDigit 000F          kpDebounce@tempo 0078  
                ___awdiv 6672                  ___awmod 65C2          __size_of___wmul 0026  
                ___lwdiv 63BA        __end_of_atraso_ms 62E4          __size_of_lcd_wr 0008  
            ssdDigit@val 0010              ssdDigit@pos 000F                  __pcinit 6224  
                __ramtop 0600                  __ptext0 6C28                  __ptext1 6806  
                __ptext2 6A5E                  __ptext3 690E                  __ptext4 70B6  
                __ptext5 611A                  __ptext6 6E68                  __ptext7 6170  
                __ptext8 634E                  __ptext9 63BA                  _lcd_dat 605A  
                _lcd_cmd 6084                  _display 0077                  _lcd_str 642E  
            ?_bancoDados 0061          __size_of_strlen 003A                  _pinMode 6E68  
      __end_of_limpaTela 60E0         ___awmod@dividend 0009                  _teclado 6806  
                _vetAnos 00B4                  _ssdInit 611A                  _pwmSet1 634E  
                _pwmInit 6020                  main@ano 006B               ??_lcd_init 000E  
    kpDebounce@valorNovo 0071     end_of_initialization 6276            __Lmediumconst 795C  
             ??_tc_tecla 000F        __end_of_ssdUpdate 6A5E     __size_of_verificaAno 00D0  
             ??_ssdDigit 0010               _vetImpLeds 0080                  postdec1 000FE5  
                postdec2 000FDD                  postinc0 000FEE                  postinc2 000FDE  
                strlen@a 0003                  strlen@s 0001           _valor@ssd$F300 795D  
             lcd_dat@val 000D               lcd_cmd@val 000D               main@cooler 0069  
    __size_of_bancoDados 0400               lcd_str@str 000E               atraso_ms@i 0009  
             atraso_ms@j 000B               atraso_ms@k 000C               atraso_ms@t 0007  
         __end_of___wmul 605A  teclado@sequenciaTeclado 0024            __pidataCOMRAM 6012  
         __end_of_lcd_wr 6020   __end_of_valor@ssd$F300 796D           __end_of_strlen 611A  
    start_initialization 6224                 ??___wmul 0005                 ??_lcd_wr 0001  
            __pdataBANK0 0080                 ??_strlen 0003              __pbssCOMRAM 006F  
             pinMode@pin 0001                _acendeLed 6522        __size_of_lcd_init 005C  
        verificaAno@ano2 0005               tc_tecla@to 000F         ___lwdiv@dividend 0001  
      __size_of_tc_tecla 01CA            __pmediumconst 795C                 ?___awdiv 0001  
               ?___awmod 0009        __size_of_ssdDigit 0058                 ?___lwdiv 0001  
               ?_lcd_dat 0001                 ?_lcd_cmd 0001             ??_bancoDados 0063  
               ?_lcd_str 000E                _atrasoMed 00FA                _atrasoMax 007D  
              _atrasoMin 0079                _atraso_ms 6280             teclado@tecla 002C  
               ?_pinMode 0001                 ?_teclado 0014                 ?_ssdInit 0001  
               ?_pwmSet1 0001                 ?_pwmInit 0001         ___lwdiv@quotient 0005  
         __size_of_fatos 0258               ?_acendeLed 000B                _limpaTela 60AE  
         ___wmul@product 0005              bancoDados@a 0065       __end_of_bancoDados 795C  
              _ssdUpdate 690E                fatos@str1 001B                fatos@str2 002C  
              fatos@str3 003D                fatos@str4 004E               pwmSet1@val 000B  
      ___wmul@multiplier 0001               ?_atraso_ms 0007    kpDebounce@valorAntigo 006F  
              lcd_wr@val 0001               ?_limpaTela 0001                copy_data0 6238  
              copy_data1 6258            ??_verificaAno 0003                 __Hrparam 0000  
               __Lrparam 0000               ?_ssdUpdate 0001         __size_of___awdiv 00C4  
       __size_of___awmod 00B0         __size_of___lwdiv 0074          pwmSet1@porcento 000A  
       __size_of_lcd_dat 002A         __size_of_lcd_cmd 002A         __size_of_lcd_str 0078  
              tc_tecla@i 0013         __size_of_pinMode 024E          ___lwdiv@divisor 0003  
       __size_of_teclado 0108          ___lwdiv@counter 0007                 __ptext10 6020  
               __ptext11 61C8                 __ptext20 6018                 __ptext12 62E4  
               __ptext21 6280                 __ptext13 755C                 __ptext22 6034  
               __ptext14 7304                 __ptext23 6522                 __ptext15 60E0  
               __ptext24 6736                 __ptext16 60AE                 __ptext25 65C2  
               __ptext17 6084                 __ptext26 6672                 __ptext18 642E  
               __ptext19 605A         __size_of_ssdInit 0056              ??_acendeLed 000D  
       __size_of_pwmSet1 006C         __size_of_pwmInit 0014                 _lcd_init 61C8  
          __size_of_main 0240            __size_of_init 006A                 _tc_tecla 6A5E  
               _ssdDigit 6170      __end_of_verificaAno 6806                 fatos@str 0013  
               lcd_str@i 0012            bancoDados@ano 0061              ??_atraso_ms 0009  
          ?_digitalWrite 0001              ??_limpaTela 000E        digitalWrite@value 0003  
               teclado@a 001A                 teclado@b 001C                 teclado@c 001E  
               teclado@d 0020              ??_ssdUpdate 0007           ??_digitalWrite 0005  
        digitalWrite@pin 0001              _verificaAno 6736  
